;
; Copyright (c) Microsoft Corporation.  All rights reserved.
;
;
; Use of this source code is subject to the terms of the Microsoft end-user
; license agreement (EULA) under which you licensed this SOFTWARE PRODUCT.
; If you did not accept the terms of the EULA, you are not authorized to use
; this source code. For a copy of the EULA, please see the LICENSE.RTF on your
; install media.
;

LIBRARY olece400  
EXPORTS             

;;;;;;;;;;;;;;;;;;;;;;;;;;;;;;;;;;;;;;;;;;;;;;;;;;;;;;;;
;   evc4.x compiler version specific section.
;   compatible with apps that consume the provided mfcdll's and are built with new or old compilers 
;   old name is exported at original ordinal
;   new decoration exposed at a new ordinal and aliased to original 4.x name decoration
;   this ensures that applications built with 7.x compilers will link with the 4.x dlls
;   comment out this section of defs if building your own mfc with 7.x compiler
;                                                           
    ??_H@YGXPAXIHP6EX0@Z@Z @ 1696 NONAME
    ??_H@YGXPAXIHP6EPAX0@Z@Z=??_H@YGXPAXIHP6EX0@Z@Z @ 1715 NONAME

    ?ConstructElements@@YAXPAVCOleVariant@@H@Z @ 547 NONAME
    ??$ConstructElements@VCOleVariant@@@@YAXPAVCOleVariant@@H@Z=?ConstructElements@@YAXPAVCOleVariant@@H@Z @ 1716 NONAME

    ?CopyElements@@YAXPAVCOleVariant@@PBV1@H@Z @ 554 NONAME
    ??$CopyElements@VCOleVariant@@@@YAXPAVCOleVariant@@PBV0@H@Z=?CopyElements@@YAXPAVCOleVariant@@PBV1@H@Z @ 1717 NONAME

    ?DestructElements@@YAXPAVCOleVariant@@H@Z @ 656 NONAME
    ??$DestructElements@VCOleVariant@@@@YAXPAVCOleVariant@@H@Z=?DestructElements@@YAXPAVCOleVariant@@H@Z @ 1718 NONAME

    ?HashKey@@YAIABUtagVARIANT@@@Z @ 1014 NONAME
    ??$HashKey@ABUtagVARIANT@@@@YAIABUtagVARIANT@@@Z=?HashKey@@YAIABUtagVARIANT@@@Z @ 1719 NONAME

    ?SerializeElements@@YAXAAVCArchive@@PAVCOleVariant@@H@Z @ 1469 NONAME
    ??$SerializeElements@VCOleVariant@@@@YAXAAVCArchive@@PAVCOleVariant@@H@Z=?SerializeElements@@YAXAAVCArchive@@PAVCOleVariant@@H@Z @ 1720 NONAME
;end 4.x compiler specific section
;;;;;;;;;;;;;;;;;;;;;;;;;;;;;;;;;;;;;;;;;;;;;;;;;;;;;;;;

;;;;;;;;;;;;;;;;;;;;;;;;;;;;;;;;;;;;;;;;;;;;;;;;;;;;;;;;
;evc7.x compiler version specific section. 
;   comment out the above section and uncomment this section
;   for 7.x compiler if building your own MFC with a 7.x compiler
;   new name is exported at original ordinal.
;   this will ensure that existing apps linked to a 4.x mfc dll will continue to function
;     
;   ??_H@YGXPAXIHP6EPAX0@Z@Z @ 1715 NONAME
;   ??_H@YGXPAXIHP6EX0@Z@Z=??_H@YGXPAXIHP6EPAX0@Z@Z @ 1696 NONAME
;
;   ??$ConstructElements@VCOleVariant@@@@YAXPAVCOleVariant@@H@Z @ 1716 NONAME
;   ?ConstructElements@@YAXPAVCOleVariant@@H@Z=??$ConstructElements@VCOleVariant@@@@YAXPAVCOleVariant@@H@Z @ 547 NONAME
;
;   ??$CopyElements@VCOleVariant@@@@YAXPAVCOleVariant@@PBV0@H@Z @ 1717 NONAME
;   ?CopyElements@@YAXPAVCOleVariant@@PBV1@H@Z=??$CopyElements@VCOleVariant@@@@YAXPAVCOleVariant@@PBV0@H@Z @ 554
;
;   ??$DestructElements@VCOleVariant@@@@YAXPAVCOleVariant@@H@Z @ 1718 NONAME
;   ?DestructElements@@YAXPAVCOleVariant@@H@Z=??$DestructElements@VCOleVariant@@@@YAXPAVCOleVariant@@H@Z @ 656 NONAME
;
;   ??$HashKey@ABUtagVARIANT@@@@YAIABUtagVARIANT@@@Z @ 1719 NONAME
;   ?HashKey@@YAIABUtagVARIANT@@@Z=??$HashKey@ABUtagVARIANT@@@@YAIABUtagVARIANT@@@Z @ 1014 NONAME
;
;   ??$SerializeElements@VCOleVariant@@@@YAXAAVCArchive@@PAVCOleVariant@@H@Z @ 1720 NONAME
;   ?SerializeElements@@YAXAAVCArchive@@PAVCOleVariant@@H@Z=??$SerializeElements@VCOleVariant@@@@YAXAAVCArchive@@PAVCOleVariant@@H@Z @ 1469 NONAME
;end 7.x compiler specific section
;;;;;;;;;;;;;;;;;;;;;;;;;;;;;;;;;;;;;;;;;;;;;;;;;;;;;;;;

	??_I@YGXPAXIHP6EX0@Z@Z @ 1697 NONAME
	??0AFX_DDPDATA@@QAE@PAXHH0IPBG@Z @ 20 NONAME
	??0CAfxOleSymbolTable@@QAE@H@Z @ 21 NONAME
	??0CArchivePropExchange@@QAE@AAVCArchive@@@Z @ 22 NONAME
	??0CAsyncPropExchange@@QAE@K@Z @ 23 NONAME
	??0CBlobProperty@@QAE@PAX@Z @ 24 NONAME
	??0CCeFont@@QAE@XZ @ 25 NONAME
	??0CConnectionPoint@@QAE@XZ @ 26 NONAME
	??0CControlDataSource@COleControl@@QAE@PAV1@@Z @ 27 NONAME
	??0CControlFrameWnd@@QAE@PAVCOleControl@@@Z @ 28 NONAME
	??0CEnumArray@@QAE@IPBXIH@Z @ 29 NONAME
	??0CEnumConnections@@QAE@PBXI@Z @ 30 NONAME
	??0CEnumConnPoints@@QAE@PBXI@Z @ 31 NONAME
	??0CFontHolder@@QAE@PAUIPropertyNotifySink@@@Z @ 32 NONAME
	??0COleControl@@QAE@XZ @ 33 NONAME
	??0COleControlContainer@@QAE@PAVCWnd@@@Z @ 34 NONAME
	??0COleControlLock@@QAE@ABU_GUID@@@Z @ 35 NONAME
	??0COleControlSite@@QAE@PAVCOleControlContainer@@@Z @ 36 NONAME
	??0COleCurrency@@QAE@JJ@Z @ 37 NONAME
	??0COleDataSource@@QAE@XZ @ 38 NONAME
	??0COleDispatchDriver@@QAE@ABV0@@Z @ 39 NONAME
	??0COleDispatchDriver@@QAE@PAUIDispatch@@H@Z @ 40 NONAME
	??0COleDispatchDriver@@QAE@XZ @ 41 NONAME
	??0COleDispatchException@@QAE@PBGIG@Z @ 42 NONAME
	??0COleObjectFactory@@QAE@ABU_GUID@@PAUCRuntimeClass@@HPBG@Z @ 43 NONAME
	??0COlePropertyPage@@QAE@II@Z @ 44 NONAME
	??0COleSafeArray@@QAE@ABUtagSAFEARRAY@@G@Z @ 45 NONAME
	??0COleSafeArray@@QAE@ABUtagVARIANT@@@Z @ 46 NONAME
	??0COleSafeArray@@QAE@ABV0@@Z @ 47 NONAME
	??0COleSafeArray@@QAE@PBUtagSAFEARRAY@@G@Z @ 48 NONAME
	??0COleSafeArray@@QAE@PBUtagVARIANT@@@Z @ 49 NONAME
	??0COleStreamFile@@QAE@PAUIStream@@@Z @ 50 NONAME
	??0COleVariant@@QAE@ABUtagVARIANT@@@Z @ 51 NONAME
	??0COleVariant@@QAE@ABV0@@Z @ 52 NONAME
	??0COleVariant@@QAE@FG@Z @ 53 NONAME
	??0COleVariant@@QAE@JG@Z @ 54 NONAME
	??0COleVariant@@QAE@PBGG@Z @ 55 NONAME
	??0COleVariant@@QAE@PBUtagVARIANT@@@Z @ 56 NONAME
	??0CParkingWnd@@QAE@XZ @ 58 NONAME
	??0CPropbagPropExchange@@QAE@PAUIPropertyBag@@PAUIErrorLog@@HH@Z @ 59 NONAME
	??0CProperty@@QAE@KQAXK@Z @ 60 NONAME
	??0CProperty@@QAE@XZ @ 61 NONAME
	??0CPropertySection@@QAE@U_GUID@@@Z @ 62 NONAME
	??0CPropertySection@@QAE@XZ @ 63 NONAME
	??0CPropertySet@@QAE@U_GUID@@@Z @ 64 NONAME
	??0CPropertySet@@QAE@XZ @ 65 NONAME
	??0CPropsetPropExchange@@QAE@AAVCPropertySection@@PAUIStorage@@H@Z @ 66 NONAME
	??0CResetPropExchange@@QAE@XZ @ 67 NONAME
	??0CStreamImp@@QAE@PBGPAV0@PAVCStorageImp@@PAUCRITICAL_SECTION@@PAJPAEH@Z @ 68 NONAME
	??0CUnknown@@QAE@PAUIUnknown@@@Z @ 69 NONAME
	??0CWindowlessDC@@QAE@PAUHDC__@@AAVCPoint@@@Z @ 70 NONAME
	??0OLE_DATA@@QAE@XZ @ 74 NONAME
	??1CAfxOleSymbolTable@@QAE@XZ @ 85 NONAME
	??1CCeFont@@UAE@XZ @ 86 NONAME
	??1CConnectionPoint@@UAE@XZ @ 87 NONAME
	??1CDateTimeCtrl@@UAE@XZ @ 88 NONAME
	??1CEnumArray@@UAE@XZ @ 89 NONAME
	??1CEnumConnections@@UAE@XZ @ 90 NONAME
	??1CEnumConnPoints@@UAE@XZ @ 91 NONAME
	??1CEnumOleVerb@@UAE@XZ @ 92 NONAME
	??1CEnumUnknown@@UAE@XZ @ 93 NONAME
	??1CFontHolder@@QAE@XZ @ 94 NONAME
	??1CMonthCalCtrl@@UAE@XZ @ 95 NONAME
	??1COleControl@@UAE@XZ @ 96 NONAME
	??1COleControlContainer@@UAE@XZ @ 97 NONAME
	??1COleControlLock@@UAE@XZ @ 98 NONAME
	??1COleControlSite@@UAE@XZ @ 99 NONAME
	??1COleDataSource@@UAE@XZ @ 100 NONAME
	??1COleDispatchException@@UAE@XZ @ 102 NONAME
	??1COleObjectFactory@@UAE@XZ @ 103 NONAME
	??1COlePropertyPage@@UAE@XZ @ 104 NONAME
	??1COleStreamFile@@UAE@XZ @ 105 NONAME
	??1CPropbagPropExchange@@QAE@XZ @ 107 NONAME
	??1CProperty@@QAE@XZ @ 108 NONAME
	??1CPropertySection@@QAE@XZ @ 109 NONAME
	??1CPropertySet@@QAE@XZ @ 110 NONAME
	??1CStreamImp@@QAE@XZ @ 111 NONAME
	??1CUnknown@@UAE@XZ @ 112 NONAME
	??4COleCurrency@@QAEABV0@ABUtagVARIANT@@@Z @ 113 NONAME
	??4COleCurrency@@QAEABV0@ABV0@@Z @ 114 NONAME
	??4COleCurrency@@QAEABV0@TtagCY@@@Z @ 115 NONAME
	??4COleDateTime@@QAEABV0@ABK@Z @ 116 NONAME
	??4COleDateTime@@QAEABV0@ABU_FILETIME@@@Z @ 117 NONAME
	??4COleDateTime@@QAEABV0@ABU_SYSTEMTIME@@@Z @ 118 NONAME
	??4COleDateTime@@QAEABV0@ABUtagVARIANT@@@Z @ 119 NONAME
	??4COleDateTime@@QAEABV0@N@Z @ 120 NONAME
	??4COleDateTimeSpan@@QAEABV0@ABV0@@Z @ 121 NONAME
	??4COleDateTimeSpan@@QAEABV0@N@Z @ 122 NONAME
	??4COleDispatchDriver@@QAEABV0@ABV0@@Z @ 123 NONAME
	??4COleSafeArray@@QAEAAV0@ABUtagVARIANT@@@Z @ 124 NONAME
	??4COleSafeArray@@QAEAAV0@ABV0@@Z @ 125 NONAME
	??4COleSafeArray@@QAEAAV0@ABVCOleVariant@@@Z @ 126 NONAME
	??4COleSafeArray@@QAEAAV0@PBUtagVARIANT@@@Z @ 127 NONAME
	??4COleVariant@@QAEABV0@ABUtagVARIANT@@@Z @ 128 NONAME
	??4COleVariant@@QAEABV0@ABV0@@Z @ 129 NONAME
	??4COleVariant@@QAEABV0@ABVCByteArray@@@Z @ 130 NONAME
	??4COleVariant@@QAEABV0@ABVCLongBinary@@@Z @ 131 NONAME
	??4COleVariant@@QAEABV0@ABVCOleCurrency@@@Z @ 132 NONAME
	??4COleVariant@@QAEABV0@ABVCOleDateTime@@@Z @ 133 NONAME
	??4COleVariant@@QAEABV0@ABVCString@@@Z @ 134 NONAME
	??4COleVariant@@QAEABV0@E@Z @ 135 NONAME
	??4COleVariant@@QAEABV0@F@Z @ 136 NONAME
	??4COleVariant@@QAEABV0@J@Z @ 137 NONAME
	??4COleVariant@@QAEABV0@M@Z @ 138 NONAME
	??4COleVariant@@QAEABV0@N@Z @ 139 NONAME
	??4COleVariant@@QAEABV0@PBUtagVARIANT@@@Z @ 140 NONAME
	??4COleVariant@@QAEABV0@QBG@Z @ 141 NONAME
	??5@YAAAVCArchive@@AAV0@AAVCOleCurrency@@@Z @ 142 NONAME
	??5@YAAAVCArchive@@AAV0@AAVCOleDateTime@@@Z @ 143 NONAME
	??5@YAAAVCArchive@@AAV0@AAVCOleDateTimeSpan@@@Z @ 144 NONAME
	??5@YAAAVCArchive@@AAV0@AAVCOleVariant@@@Z @ 145 NONAME
	??5CArchive@@QAEAAV0@AAE@Z @ 1653 NONAME
	??5CArchive@@QAEAAV0@AAG@Z @ 1654 NONAME
	??5CArchive@@QAEAAV0@AAJ@Z @ 1655 NONAME
	??5CArchive@@QAEAAV0@AAK@Z @ 1656 NONAME
	??5CArchive@@QAEAAV0@AAM@Z @ 1657 NONAME
	??5CArchive@@QAEAAV0@AAN@Z @ 1658 NONAME
	??6@YAAAVCArchive@@AAV0@VCOleCurrency@@@Z @ 148 NONAME
	??6@YAAAVCArchive@@AAV0@VCOleDateTime@@@Z @ 149 NONAME
	??6@YAAAVCArchive@@AAV0@VCOleDateTimeSpan@@@Z @ 150 NONAME
	??6@YAAAVCArchive@@AAV0@VCOleVariant@@@Z @ 151 NONAME
	??6CArchive@@QAEAAV0@E@Z @ 1659 NONAME
	??6CArchive@@QAEAAV0@G@Z @ 1660 NONAME
	??6CArchive@@QAEAAV0@J@Z @ 1661 NONAME
	??6CArchive@@QAEAAV0@K@Z @ 1662 NONAME
	??6CArchive@@QAEAAV0@M@Z @ 1663 NONAME
	??6CArchive@@QAEAAV0@N@Z @ 1664 NONAME
	??8COleSafeArray@@QBEHABUtagSAFEARRAY@@@Z @ 152 NONAME
	??8COleSafeArray@@QBEHABUtagVARIANT@@@Z @ 153 NONAME
	??8COleSafeArray@@QBEHABV0@@Z @ 154 NONAME
	??8COleSafeArray@@QBEHABVCOleVariant@@@Z @ 155 NONAME
	??8COleSafeArray@@QBEHPBUtagSAFEARRAY@@@Z @ 156 NONAME
	??8COleSafeArray@@QBEHPBUtagVARIANT@@@Z @ 157 NONAME
	??8COleVariant@@QBEHABUtagVARIANT@@@Z @ 158 NONAME
	??DCOleCurrency@@QBE?AV0@J@Z @ 159 NONAME
	??GCOleCurrency@@QBE?AV0@ABV0@@Z @ 160 NONAME
	??GCOleCurrency@@QBE?AV0@XZ @ 161 NONAME
	??GCOleDateTime@@QBE?AV0@ABVCOleDateTimeSpan@@@Z @ 162 NONAME
	??GCOleDateTime@@QBE?AVCOleDateTimeSpan@@ABV0@@Z @ 163 NONAME
	??GCOleDateTimeSpan@@QBE?AV0@ABV0@@Z @ 164 NONAME
	??HCOleCurrency@@QBE?AV0@ABV0@@Z @ 165 NONAME
	??HCOleDateTime@@QBE?AV0@ABVCOleDateTimeSpan@@@Z @ 166 NONAME
	??HCOleDateTimeSpan@@QBE?AV0@ABV0@@Z @ 167 NONAME
	??KCOleCurrency@@QBE?AV0@J@Z @ 168 NONAME
	??MCOleCurrency@@QBEHABV0@@Z @ 169 NONAME
	??MCOleDateTime@@QBEHABV0@@Z @ 170 NONAME
	??MCTime@@QBEHV0@@Z @ 1690 NONAME
	??NCOleCurrency@@QBEHABV0@@Z @ 171 NONAME
	??NCOleDateTime@@QBEHABV0@@Z @ 172 NONAME
	??OCOleCurrency@@QBEHABV0@@Z @ 173 NONAME
	??OCOleDateTime@@QBEHABV0@@Z @ 174 NONAME
	??OCTime@@QBEHV0@@Z @ 1691 NONAME
	??PCOleCurrency@@QBEHABV0@@Z @ 175 NONAME
	??PCOleDateTime@@QBEHABV0@@Z @ 176 NONAME
	?_AfxAtEndOfTabList@@YAHPAVCDialog@@I@Z @ 177 NONAME
	?_AfxCheckDefPushButton@@YAXPAVCWnd@@00@Z @ 178 NONAME
	?_AfxCleanupDDPs@@YAXAAVCPtrArray@@@Z @ 179 NONAME
	?_AfxCoCreateInstanceLic@@YAJABU_GUID@@PAUIUnknown@@K0PAPAXPAG@Z @ 180 NONAME
	?_AfxCoerceNumber@@YAHPAXG0G@Z @ 181 NONAME
	?_AfxCompareSafeArrays@@YAHPAUtagSAFEARRAY@@0@Z @ 182 NONAME
	?_AfxConvertStringProp@@YAPAEPAEKKI@Z @ 183 NONAME
	?_AfxCopyBinaryData@@YAXPAUtagSAFEARRAY@@PBXK@Z @ 184 NONAME
	?_AfxCopyBlob@@YAHPAPAXPAX@Z @ 185 NONAME
	?_AfxCopyGlobalMemory@@YAPAXPAX0@Z @ 186 NONAME
	?_AfxCopyPropValue@@YAHGPAXPBX@Z @ 187 NONAME
	?_AfxCopyStgMedium@@YAHGPAUtagSTGMEDIUM@@0@Z @ 188 NONAME
	?_AfxCopyString@@YAPAGPBG@Z @ 1665 NONAME
	?_AfxCountPrefixedStringA@@YAPAXPBD@Z @ 189 NONAME
	?_AfxCountPrefixedStringW@@YAPAXPBG@Z @ 190 NONAME
	?_AfxCreateFontFromStream@@YAPAUIFont@@PAUIStream@@@Z @ 191 NONAME
	?_AfxCreateMemoryStream@@YAPAUIStream@@XZ @ 192 NONAME
	?_AfxCreateObjectFromStreamedPropset@@YAPAUIUnknown@@PAUIStream@@ABU_GUID@@@Z @ 193 NONAME
	?_AfxCreateOneDimArray@@YAXAAUtagVARIANT@@K@Z @ 194 NONAME
	?_AfxDateFromDouble@@YANN@Z @ 195 NONAME
	?_AfxDlgSetFocus@@YAXPAVCWnd@@@Z @ 196 NONAME
	?_AfxDoubleFromDate@@YANN@Z @ 197 NONAME
	?_AfxDrawBorders@@YAXPAVCDC@@AAVCRect@@HH@Z @ 198 NONAME
	?_AfxFillFormatEtc@@YAPAUtagFORMATETC@@PAU1@G0@Z @ 199 NONAME
	?_AfxFillOleFileException@@YAXPAVCFileException@@J@Z @ 200 NONAME
	?_AfxFillPSOnStack@@YAXXZ @ 201 NONAME
	?_AfxFindDlgItem@@YAPAVCWnd@@PAV1@K@Z @ 202 NONAME
	?_AfxFindFirstDlgItem@@YAPAUDLGITEMTEMPLATE@@PBUDLGTEMPLATE@@@Z @ 203 NONAME
	?_AfxFindNextDlgItem@@YAPAUDLGITEMTEMPLATE@@PAU1@H@Z @ 204 NONAME
	?_AfxFindNextMnem@@YAPAVCWnd@@PAV1@0PAUtagMSG@@@Z @ 205 NONAME
	?_AfxGetArchiveStream@@YAPAUIStream@@AAVCArchive@@AAVCArchiveStream@@@Z @ 206 NONAME
	?_AfxGetChildControl@@YAPAVCWnd@@PAV1@0@Z @ 207 NONAME
	?_AfxGetClassIDFromStreamedPropset@@YAHPAU_GUID@@PAUIStream@@@Z @ 208 NONAME
	?_AfxGetClipboardFormatConvertVBX@@YAGXZ @ 209 NONAME
	?_AfxGetClipboardFormatPersistPropset@@YAGXZ @ 210 NONAME
	?_AfxGetDlgCode@@YAKPAVCWnd@@PAUtagMSG@@@Z @ 211 NONAME
	?_AfxGetNextMnem@@YAPAVCWnd@@PAV1@0PAUtagMSG@@@Z @ 212 NONAME
	?_AfxGetOleModuleState@@YAPAVAFX_MODULE_STATE@@XZ @ 213 NONAME
	?_AfxGetParkingWindow@@YAPAUHWND__@@XZ @ 214 NONAME
	?_AfxGetSizeOfVarType@@YAIG@Z @ 215 NONAME
	?_AfxGetTopLevelWindow@@YAPAUHWND__@@PAU1@@Z @ 216 NONAME
	?_AfxInitBlob@@YAHPAPAXPAX@Z @ 217 NONAME
	?_AfxInitStreamDataFromBlobProp@@YAHPAUIStream@@PAVCProperty@@@Z @ 218 NONAME
	?_AfxIsRadioButton@@YAHPAUHWND__@@@Z @ 219 NONAME
	?_AfxIsSameFont@@YAHAAVCFontHolder@@PBUtagFONTDESC@@PAUIFontDisp@@@Z @ 220 NONAME
	?_AfxIsSamePropValue@@YAHGPBX0@Z @ 221 NONAME
	?_AfxIsSameUnknownObject@@YAHABU_GUID@@PAUIUnknown@@1@Z @ 222 NONAME
	?_AfxLoadObjectFromStreamedPropset@@YAHPAUIUnknown@@PAUIStream@@@Z @ 223 NONAME
	?_AfxLoadStreamFromPropset@@YAPAUIStream@@AAVCPropertySection@@PBGAAK@Z @ 224 NONAME
	?_AfxNextControl@@YAPAVCWnd@@PAV1@0I@Z @ 225 NONAME
	?_AfxOffsetTrackerRect@@YAXAAVCRect@@PAVCWnd@@@Z @ 226 NONAME
	?_AfxOleDateFromTm@@YAHGGGGGGAAN@Z @ 227 NONAME
	?_AfxOleGetObjectDescriptorData@@YAPAXPAUIOleObject@@PBGKU_POINTL@@PAUtagSIZE@@@Z @ 228 NONAME
	?_AfxOleGetObjectDescriptorData@@YAPAXU_GUID@@KUtagSIZE@@U_POINTL@@KPBG3@Z @ 229 NONAME
	?_AfxOleMakeSymbolTable@@YAHAAVCAfxOleSymbolTable@@ABU_GUID@@PBG22H22@Z @ 230 NONAME
	?_AfxOleMatchPropsetClipFormat@@YAHGPAU_GUID@@@Z @ 231 NONAME
	?_AfxOriginalDefButton@@YAHPAVCWnd@@@Z @ 232 NONAME
	?_AfxParseOption@@YAHPAGPBG@Z @ 233 NONAME
	?_AfxPeekAtClassIDInStream@@YAHPAUIStream@@PAU_GUID@@@Z @ 234 NONAME
	?_AfxPostTrailByte@@YAXPAVCWnd@@E@Z @ 235 NONAME
	?_AfxQueryInterface@@YAPAUIUnknown@@PAU1@ABU_GUID@@@Z @ 236 NONAME
	?_AfxReadFromStream@@YAJPAUIStream@@PAXIAAK@Z @ 237 NONAME
	?_AfxRecursiveRegDeleteKey@@YAJPAUHKEY__@@PAG@Z @ 238 NONAME
	?_AfxRegisterClipFormat@@YAGABU_GUID@@@Z @ 239 NONAME
	?_AfxRelease@@YAKPAPAUIUnknown@@@Z @ 240 NONAME
	?_AfxReleaseParkingWindow@@YAXXZ @ 241 NONAME
	?_AfxRemoveDefaultButton@@YAXPAVCWnd@@0@Z @ 242 NONAME
	?_AfxSaveObjectInPropset@@YAHPAUIUnknown@@AAVCPropertySection@@K@Z @ 243 NONAME
	?_AfxSaveStreamDataAsBlobProp@@YAHPAUIStream@@AAVCPropertySection@@KK@Z @ 244 NONAME
	?_AfxShiftState@@YAFXZ @ 245 NONAME
	?_AfxThrowOleFileException@@YAXJ@Z @ 246 NONAME
	?_AfxTmConvertToStandardFormat@@YAXAAUtm@@@Z @ 247 NONAME
	?_AfxTmFromOleDate@@YAHNAAUtm@@@Z @ 248 NONAME
	?_AfxToggleAppearance@@YAXPAVCWnd@@@Z @ 249 NONAME
	?_AfxToggleBorderStyle@@YAXPAVCWnd@@@Z @ 250 NONAME
	?_AfxUnregisterInterfaces@@YAXPAUITypeLib@@@Z @ 251 NONAME
	?_AfxWriteNameDictEntry@@YAHPAUIStream@@KAAVCString@@@Z @ 252 NONAME
	?_AfxXformSizeInHimetricToPixels@@YAXPAUHDC__@@PAUtagSIZE@@1@Z @ 253 NONAME
	?_AfxXformSizeInPixelsToHimetric@@YAXPAUHDC__@@PAUtagSIZE@@1@Z @ 254 NONAME
	?_ClearCompat@COleVariant@@QAEXXZ @ 255 NONAME
	?_GetBaseClass@CDateTimeCtrl@@KAPAUCRuntimeClass@@XZ @ 256 NONAME
	?_GetBaseClass@CMonthCalCtrl@@KAPAUCRuntimeClass@@XZ @ 257 NONAME
	?_GetBaseClass@COleControl@@KAPAUCRuntimeClass@@XZ @ 258 NONAME
	?_GetBaseClass@COleControlModule@@KAPAUCRuntimeClass@@XZ @ 259 NONAME
	?_GetBaseClass@COleDispatchException@@KAPAUCRuntimeClass@@XZ @ 260 NONAME
	?_GetBaseClass@COleException@@KAPAUCRuntimeClass@@XZ @ 261 NONAME
	?_GetBaseClass@COleObjectFactory@@KAPAUCRuntimeClass@@XZ @ 262 NONAME
	?_GetBaseClass@COlePropertyPage@@KAPAUCRuntimeClass@@XZ @ 263 NONAME
	?_GetBaseClass@COleStreamFile@@KAPAUCRuntimeClass@@XZ @ 264 NONAME
	?_GetBaseClass@CWindowlessDC@@KAPAUCRuntimeClass@@XZ @ 265 NONAME
	?_GetBaseConnectionMap@COleControl@@KAPBUAFX_CONNECTIONMAP@@XZ @ 266 NONAME
	?_GetBaseDispatchMap@COleControlContainer@@KAPBUAFX_DISPMAP@@XZ @ 267 NONAME
	?_GetBaseInterfaceMap@CEnumConnections@@KAPBUAFX_INTERFACEMAP@@XZ @ 268 NONAME
	?_GetBaseInterfaceMap@CEnumConnPoints@@KAPBUAFX_INTERFACEMAP@@XZ @ 269 NONAME
	?_GetBaseInterfaceMap@CEnumOleVerb@@KAPBUAFX_INTERFACEMAP@@XZ @ 270 NONAME
	?_GetBaseInterfaceMap@CEnumUnknown@@KAPBUAFX_INTERFACEMAP@@XZ @ 271 NONAME
	?_GetBaseInterfaceMap@COleControl@@KAPBUAFX_INTERFACEMAP@@XZ @ 272 NONAME
	?_GetBaseInterfaceMap@COleControlContainer@@KAPBUAFX_INTERFACEMAP@@XZ @ 273 NONAME
	?_GetBaseInterfaceMap@COleControlSite@@KAPBUAFX_INTERFACEMAP@@XZ @ 274 NONAME
	?_GetBaseInterfaceMap@COleDataSource@@KAPBUAFX_INTERFACEMAP@@XZ @ 275 NONAME
	?_GetBaseInterfaceMap@COleObjectFactory@@KAPBUAFX_INTERFACEMAP@@XZ @ 276 NONAME
	?_GetBaseInterfaceMap@COlePropertyPage@@KAPBUAFX_INTERFACEMAP@@XZ @ 277 NONAME
	?_GetBaseMessageMap@CControlFrameWnd@@KAPBUAFX_MSGMAP@@XZ @ 278 NONAME
	?_GetBaseMessageMap@COleControl@@KAPBUAFX_MSGMAP@@XZ @ 279 NONAME
	?_GetBaseMessageMap@COlePropertyPage@@KAPBUAFX_MSGMAP@@XZ @ 280 NONAME
	?_GetClippingCoordinates@@YAXPBUtagRECT@@0PAU1@PAUtagPOINT@@@Z @ 281 NONAME
	?_GetI4Property@@YAHPAUIDispatch@@JPAK@Z @ 282 NONAME
	?Abort@COleStreamFile@@UAEXXZ @ 283 NONAME
	?AccessData@COleSafeArray@@QAEXPAPAX@Z @ 284 NONAME
	?Activate@XPropertyPage@COlePropertyPage@@UAAJPAUHWND__@@PBUtagRECT@@H@Z @ 285 NONAME
	?AddConnection@CEnumConnections@@QAEXPAUtagCONNECTDATA@@@Z @ 286 NONAME
	?AddConnPoint@CEnumConnPoints@@QAEXPAUIConnectionPoint@@@Z @ 287 NONAME
	?AddProperty@CPropertySection@@QAEXPAVCProperty@@@Z @ 288 NONAME
	?AddProperty@CPropertySet@@QAEXU_GUID@@PAVCProperty@@@Z @ 289 NONAME
	?AddRef@CBlobProperty@@UAAKXZ @ 290 NONAME
	?AddRef@CCeFont@@UAAKXZ @ 291 NONAME
	?AddRef@CCeFont@@W3AAKXZ @ 292 NONAME
	?AddRef@CCeFont@@W7AAKXZ @ 293 NONAME
	?AddRef@CCeFont@@WBA@AAKXZ @ 294 NONAME
	?AddRef@CCeFont@@WM@AAKXZ @ 295 NONAME
	?AddRef@CInnerUnknown@@UAAKXZ @ 296 NONAME
	?AddRef@COleConnPtContainer@@UAAKXZ @ 297 NONAME
	?AddRef@COleDispatchImpl@@UAAKXZ @ 298 NONAME
	?AddRef@CStreamImp@@UAAKXZ @ 299 NONAME
	?AddRef@XAmbientProps@COleControlSite@@UAAKXZ @ 300 NONAME
	?AddRef@XClassFactory@COleObjectFactory@@UAAKXZ @ 301 NONAME
	?AddRef@XConnPt@CConnectionPoint@@UAAKXZ @ 302 NONAME
	?AddRef@XDataObject@COleDataSource@@UAAKXZ @ 303 NONAME
	?AddRef@XEnumVOID@CEnumArray@@UAAKXZ @ 304 NONAME
	?AddRef@XEventSink@COleControlSite@@UAAKXZ @ 305 NONAME
	?AddRef@XFontNotification@COleControl@@UAAKXZ @ 306 NONAME
	?AddRef@XOleClientSite@COleControlSite@@UAAKXZ @ 307 NONAME
	?AddRef@XOleContainer@COleControlContainer@@UAAKXZ @ 308 NONAME
	?AddRef@XOleControl@COleControl@@UAAKXZ @ 309 NONAME
	?AddRef@XOleControlSite@COleControlSite@@UAAKXZ @ 310 NONAME
	?AddRef@XOleInPlaceActiveObject@COleControl@@UAAKXZ @ 311 NONAME
	?AddRef@XOleInPlaceObject@COleControl@@UAAKXZ @ 312 NONAME
	?AddRef@XOleIPFrame@COleControlContainer@@UAAKXZ @ 313 NONAME
	?AddRef@XOleIPSite@COleControlSite@@UAAKXZ @ 314 NONAME
	?AddRef@XOleObject@COleControl@@UAAKXZ @ 315 NONAME
	?AddRef@XPerPropertyBrowsing@COleControl@@UAAKXZ @ 316 NONAME
	?AddRef@XPersistMemory@COleControl@@UAAKXZ @ 317 NONAME
	?AddRef@XPersistPropertyBag@COleControl@@UAAKXZ @ 318 NONAME
	?AddRef@XPersistStorage@COleControl@@UAAKXZ @ 319 NONAME
	?AddRef@XPersistStreamInit@COleControl@@UAAKXZ @ 320 NONAME
	?AddRef@XPointerInactive@COleControl@@UAAKXZ @ 321 NONAME
	?AddRef@XPropertyNotifySink@COleControlSite@@UAAKXZ @ 322 NONAME
	?AddRef@XPropertyPage@COlePropertyPage@@UAAKXZ @ 323 NONAME
	?AddRef@XPropNotifySink@COlePropertyPage@@UAAKXZ @ 324 NONAME
	?AddRef@XProvideClassInfo@COleControl@@UAAKXZ @ 325 NONAME
	?AddRef@XQuickActivate@COleControl@@UAAKXZ @ 326 NONAME
	?AddRef@XSpecifyPropertyPages@COleControl@@UAAKXZ @ 327 NONAME
	?AddRef@XViewObject@COleControl@@UAAKXZ @ 328 NONAME
	?AddRefHfont@CCeFont@@UAAJPAUHFONT__@@@Z @ 329 NONAME
	?AddSection@CPropertySet@@QAEPAVCPropertySection@@U_GUID@@@Z @ 330 NONAME
	?AddSection@CPropertySet@@QAEXPAVCPropertySection@@@Z @ 331 NONAME
	?Advise@XConnPt@CConnectionPoint@@UAAJPAUIUnknown@@PAK@Z @ 332 NONAME
	?Advise@XOleObject@COleControl@@UAAJPAUIAdviseSink@@PAK@Z @ 333 NONAME
	?AfxAllocTaskAnsiString@@YAPADPBD@Z @ 334 NONAME
	?AfxAllocTaskAnsiString@@YAPADPBG@Z @ 335 NONAME
	?AfxAllocTaskWideString@@YAPAGPBD@Z @ 336 NONAME
	?AfxAllocTaskWideString@@YAPAGPBG@Z @ 337 NONAME
	?AfxBSTR2CString@@YAXPAVCString@@PAG@Z @ 338 NONAME
	?AfxCheckError@@YAXJ@Z @ 339 NONAME
	?AfxConnectionAdvise@@YAHPAUIUnknown@@ABU_GUID@@0HPAK@Z @ 340 NONAME
	?AfxConnectionUnadvise@@YAHPAUIUnknown@@ABU_GUID@@0HK@Z @ 341 NONAME
	?AfxDllCanUnloadNow@@YAJXZ @ 342 NONAME
	?AfxDllGetClassObject@@YAJABU_GUID@@0PAPAX@Z @ 343 NONAME
	?AfxEnableControlContainer@@YAXPAVCOccManager@@@Z @ 344 NONAME
	?AfxGetClassIDFromString@@YAJPBGPAU_GUID@@@Z @ 345 NONAME
	?AfxGetTypeLibCache@@YAPAVCTypeLibCache@@PBU_GUID@@@Z @ 346 NONAME
	?AfxMergeMenus@@YAPAUHMENU__@@PAU1@0PAJHH@Z @ 347 NONAME
	?AfxOleInit@@YAHXZ @ 348 NONAME
	?AfxOleInitModule@@YAXXZ @ 349 NONAME
	?AfxOleLockControl@@YAHABU_GUID@@@Z @ 350 NONAME
	?AfxOleLockControl@@YAHPBG@Z @ 351 NONAME
	?AfxOleRegisterControlClass@@YAHPAUHINSTANCE__@@ABU_GUID@@PBGIIHK1GG@Z @ 352 NONAME
	?AfxOleRegisterHelper@@YAHPBQBG0HHPAUHKEY__@@@Z @ 353 NONAME
	?AfxOleRegisterPropertyPageClass@@YAHPAUHINSTANCE__@@ABU_GUID@@I@Z @ 354 NONAME
	?AfxOleRegisterPropertyPageClass@@YAHPAUHINSTANCE__@@ABU_GUID@@IH@Z @ 355 NONAME
	?AfxOleRegisterServerClass@@YAHABU_GUID@@PBG11W4OLE_APPTYPE@@PAPBG3H1@Z @ 356 NONAME
	?AfxOleRegisterServerClass@@YAHABU_GUID@@PBG11W4OLE_APPTYPE@@PAPBG3H11@Z @ 357 NONAME
	?AfxOleRegisterServerClassCompat@@YAHABU_GUID@@PBG11W4OLE_APPTYPE@@PAPBG3@Z @ 358 NONAME
	?AfxOleRegisterTypeLib@@YAHPAUHINSTANCE__@@ABU_GUID@@PBG2@Z @ 359 NONAME
	?AfxOleTerm@@YAXH@Z @ 360 NONAME
	?AfxOleTermOrFreeLib@@YAXHH@Z @ 361 NONAME
	?AfxOleUnlockAllControls@@YAXXZ @ 362 NONAME
	?AfxOleUnlockControl@@YAHABU_GUID@@@Z @ 363 NONAME
	?AfxOleUnlockControl@@YAHPBG@Z @ 364 NONAME
	?AfxOleUnregisterClass@@YAHABU_GUID@@PBG@Z @ 365 NONAME
	?AfxOleUnregisterHelper@@YAHPBQBG0HPAUHKEY__@@@Z @ 366 NONAME
	?AfxOleUnregisterServerClass@@YAHABU_GUID@@PBG11W4OLE_APPTYPE@@PAPBG3@Z @ 367 NONAME
	?AfxOleUnregisterTypeLib@@YAHABU_GUID@@GGK@Z @ 368 NONAME
	?AfxSafeArrayInit@@YAXPAVCOleSafeArray@@@Z @ 369 NONAME
	?AfxThrowOleDispatchException@@YAXGII@Z @ 370 NONAME
	?AfxThrowOleDispatchException@@YAXGPBGI@Z @ 371 NONAME
	?AfxThrowOleException@@YAXJ@Z @ 372 NONAME
	?AfxThunkCLSIDFromProgID@@YAJPBGPAU_GUID@@@Z @ 373 NONAME
	?AfxThunkCLSIDFromString@@YAJPAGPAU_GUID@@@Z @ 374 NONAME
	?AfxThunkCoCreateInstance@@YAJABU_GUID@@PAPAUIUnknown@@K0PAPAX@Z @ 375 NONAME
	?AfxThunkCoDisconnectObject@@YAJPAUIUnknown@@K@Z @ 376 NONAME
	?AfxThunkCoFreeUnusedLibraries@@YAXXZ @ 377 NONAME
	?AfxThunkCoGetClassObject@@YAJABU_GUID@@KPAX0PAPAX@Z @ 378 NONAME
	?AfxThunkCoGetMalloc@@YAJKPAPAUIMalloc@@@Z @ 379 NONAME
	?AfxThunkCoInitialize@@YAJPAX@Z @ 380 NONAME
	?AfxThunkCoInitializeEx@@YAJPAXK@Z @ 381 NONAME
	?AfxThunkCoLockObjectExternal@@YAJPAUIUnknown@@HH@Z @ 382 NONAME
	?AfxThunkCoRegisterClassObject@@YAJABU_GUID@@PAUIUnknown@@KKPAK@Z @ 383 NONAME
	?AfxThunkCoRegisterMessageFilter@@YAJPAUIMessageFilter@@PAPAU1@@Z @ 384 NONAME
	?AfxThunkCoRevokeClassObject@@YAJK@Z @ 385 NONAME
	?AfxThunkCoTaskMemAlloc@@YAPAXK@Z @ 386 NONAME
	?AfxThunkCoTaskMemFree@@YAXPAX@Z @ 387 NONAME
	?AfxThunkCoTaskMemRealloc@@YAPAXPAXK@Z @ 388 NONAME
	?AfxThunkCoTreatAsClass@@YAJABU_GUID@@0@Z @ 389 NONAME
	?AfxThunkCoUninitialize@@YAXXZ @ 390 NONAME
	?AfxThunkCreateBindCtx@@YAJKPAPAUIBindCtx@@@Z @ 391 NONAME
	?AfxThunkCreateDataAdviseHolder@@YAJPAPAUIDataAdviseHolder@@@Z @ 392 NONAME
	?AfxThunkCreateFileMoniker@@YAJPBGPAPAUIMoniker@@@Z @ 393 NONAME
	?AfxThunkCreateGenericComposite@@YAJPAUIMoniker@@0PAPAU1@@Z @ 394 NONAME
	?AfxThunkCreateILockBytesOnHGlobal@@YAJPAXHPAPAUILockBytes@@@Z @ 395 NONAME
	?AfxThunkCreateItemMoniker@@YAJPBG0PAPAUIMoniker@@@Z @ 396 NONAME
	?AfxThunkCreateOleAdviseHolder@@YAJPAPAUIOleAdviseHolder@@@Z @ 397 NONAME
	?AfxThunkCreateStreamOnHGlobal@@YAJPAXHPAPAUIStream@@@Z @ 398 NONAME
	?AfxThunkDoDragDrop@@YAJPAUIDataObject@@PAUIDropSource@@KPAK@Z @ 399 NONAME
	?AfxThunkDosDateTimeToVariantTime@@YAHGGPAN@Z @ 400 NONAME
	?AfxThunkGetHGlobalFromILockBytes@@YAJPAUILockBytes@@PAPAX@Z @ 401 NONAME
	?AfxThunkGetRunningObjectTable@@YAJKPAPAUIRunningObjectTable@@@Z @ 402 NONAME
	?AfxThunkIsAccelerator@@YAHPAUHACCEL__@@HPAUtagMSG@@PAG@Z @ 403 NONAME
	?AfxThunkLoadRegTypeLib@@YAJABU_GUID@@GGKPAPAUITypeLib@@@Z @ 404 NONAME
	?AfxThunkLoadTypeLib@@YAJPBGPAPAUITypeLib@@@Z @ 405 NONAME
	?AfxThunkOleCreate@@YAJABU_GUID@@0KPAUtagFORMATETC@@PAUIOleClientSite@@PAUIStorage@@PAPAX@Z @ 406 NONAME
	?AfxThunkOleCreateDefaultHandler@@YAJABU_GUID@@PAUIUnknown@@0PAPAX@Z @ 407 NONAME
	?AfxThunkOleCreateFromData@@YAJPAUIDataObject@@ABU_GUID@@KPAUtagFORMATETC@@PAUIOleClientSite@@PAUIStorage@@PAPAX@Z @ 408 NONAME
	?AfxThunkOleCreateFromFile@@YAJABU_GUID@@PBG0KPAUtagFORMATETC@@PAUIOleClientSite@@PAUIStorage@@PAPAX@Z @ 409 NONAME
	?AfxThunkOleCreateLinkFromData@@YAJPAUIDataObject@@ABU_GUID@@KPAUtagFORMATETC@@PAUIOleClientSite@@PAUIStorage@@PAPAX@Z @ 410 NONAME
	?AfxThunkOleCreateLinkToFile@@YAJPBGABU_GUID@@KPAUtagFORMATETC@@PAUIOleClientSite@@PAUIStorage@@PAPAX@Z @ 411 NONAME
	?AfxThunkOleCreateMenuDescriptor@@YAPAXPAUHMENU__@@PAUtagOleMenuGroupWidths@@@Z @ 412 NONAME
	?AfxThunkOleCreateStaticFromData@@YAJPAUIDataObject@@ABU_GUID@@KPAUtagFORMATETC@@PAUIOleClientSite@@PAUIStorage@@PAPAX@Z @ 413 NONAME
	?AfxThunkOleDestroyMenuDescriptor@@YAJPAX@Z @ 414 NONAME
	?AfxThunkOleDuplicateData@@YAPAXPAXGI@Z @ 415 NONAME
	?AfxThunkOleFlushClipboard@@YAJXZ @ 416 NONAME
	?AfxThunkOleGetAutoConvert@@YAJABU_GUID@@PAU1@@Z @ 417 NONAME
	?AfxThunkOleGetClipboard@@YAJPAPAUIDataObject@@@Z @ 418 NONAME
	?AfxThunkOleGetIconOfClass@@YAPAXABU_GUID@@PAGH@Z @ 419 NONAME
	?AfxThunkOleIsCurrentClipboard@@YAJPAUIDataObject@@@Z @ 420 NONAME
	?AfxThunkOleIsRunning@@YAHPAUIOleObject@@@Z @ 421 NONAME
	?AfxThunkOleLoad@@YAJPAUIStorage@@ABU_GUID@@PAUIOleClientSite@@PAPAX@Z @ 422 NONAME
	?AfxThunkOleLoadFromStream@@YAJPAUIStream@@ABU_GUID@@PAPAX@Z @ 423 NONAME
	?AfxThunkOleLockRunning@@YAJPAUIUnknown@@HH@Z @ 424 NONAME
	?AfxThunkOleQueryCreateFromData@@YAJPAUIDataObject@@@Z @ 425 NONAME
	?AfxThunkOleQueryLinkFromData@@YAJPAUIDataObject@@@Z @ 426 NONAME
	?AfxThunkOleRegEnumVerbs@@YAJABU_GUID@@PAPAUIEnumOLEVERB@@@Z @ 427 NONAME
	?AfxThunkOleRegGetMiscStatus@@YAJABU_GUID@@KPAK@Z @ 428 NONAME
	?AfxThunkOleRegGetUserType@@YAJABU_GUID@@KPAPAG@Z @ 429 NONAME
	?AfxThunkOleRun@@YAJPAUIUnknown@@@Z @ 430 NONAME
	?AfxThunkOleSave@@YAJPAUIPersistStorage@@PAUIStorage@@H@Z @ 431 NONAME
	?AfxThunkOleSaveToStream@@YAJPAUIPersistStream@@PAUIStream@@@Z @ 432 NONAME
	?AfxThunkOleSetClipboard@@YAJPAUIDataObject@@@Z @ 433 NONAME
	?AfxThunkOleSetContainedObject@@YAJPAUIUnknown@@H@Z @ 434 NONAME
	?AfxThunkOleSetMenuDescriptor@@YAJPAXPAUHWND__@@1PAUIOleInPlaceFrame@@PAUIOleInPlaceActiveObject@@@Z @ 435 NONAME
	?AfxThunkOleTranslateAccelerator@@YAJPAUIOleInPlaceFrame@@PAUtagOIFI@@PAUtagMSG@@@Z @ 436 NONAME
	?AfxThunkOleUninitialize@@YAXXZ @ 437 NONAME
	?AfxThunkReadClassStg@@YAJPAUIStorage@@PAU_GUID@@@Z @ 438 NONAME
	?AfxThunkReadClassStm@@YAJPAUIStream@@PAU_GUID@@@Z @ 439 NONAME
	?AfxThunkReadFmtUserTypeStg@@YAJPAUIStorage@@PAGPAPAG@Z @ 440 NONAME
	?AfxThunkRegisterDragDrop@@YAJPAUHWND__@@PAUIDropTarget@@@Z @ 441 NONAME
	?AfxThunkRegisterTypeLib@@YAJPAUITypeLib@@PAG1@Z @ 442 NONAME
	?AfxThunkReleaseStgMedium@@YAXPAUtagSTGMEDIUM@@@Z @ 443 NONAME
	?AfxThunkRevokeDragDrop@@YAJPAUHWND__@@@Z @ 444 NONAME
	?AfxThunkSafeArrayAccessData@@YAJPAUtagSAFEARRAY@@PAPAX@Z @ 445 NONAME
	?AfxThunkSafeArrayAllocData@@YAJPAUtagSAFEARRAY@@@Z @ 446 NONAME
	?AfxThunkSafeArrayAllocDescriptor@@YAJIPAPAUtagSAFEARRAY@@@Z @ 447 NONAME
	?AfxThunkSafeArrayCopy@@YAJPAUtagSAFEARRAY@@PAPAU1@@Z @ 448 NONAME
	?AfxThunkSafeArrayCreate@@YAPAUtagSAFEARRAY@@GIPAUtagSAFEARRAYBOUND@@@Z @ 449 NONAME
	?AfxThunkSafeArrayDestroy@@YAJPAUtagSAFEARRAY@@@Z @ 450 NONAME
	?AfxThunkSafeArrayDestroyData@@YAJPAUtagSAFEARRAY@@@Z @ 451 NONAME
	?AfxThunkSafeArrayDestroyDescriptor@@YAJPAUtagSAFEARRAY@@@Z @ 452 NONAME
	?AfxThunkSafeArrayGetDim@@YAIPAUtagSAFEARRAY@@@Z @ 453 NONAME
	?AfxThunkSafeArrayGetElement@@YAJPAUtagSAFEARRAY@@PAJPAX@Z @ 454 NONAME
	?AfxThunkSafeArrayGetElemsize@@YAIPAUtagSAFEARRAY@@@Z @ 455 NONAME
	?AfxThunkSafeArrayGetLBound@@YAJPAUtagSAFEARRAY@@IPAJ@Z @ 456 NONAME
	?AfxThunkSafeArrayGetUBound@@YAJPAUtagSAFEARRAY@@IPAJ@Z @ 457 NONAME
	?AfxThunkSafeArrayLock@@YAJPAUtagSAFEARRAY@@@Z @ 458 NONAME
	?AfxThunkSafeArrayPtrOfIndex@@YAJPAUtagSAFEARRAY@@PAJPAPAX@Z @ 459 NONAME
	?AfxThunkSafeArrayPutElement@@YAJPAUtagSAFEARRAY@@PAJPAX@Z @ 460 NONAME
	?AfxThunkSafeArrayRedim@@YAJPAUtagSAFEARRAY@@PAUtagSAFEARRAYBOUND@@@Z @ 461 NONAME
	?AfxThunkSafeArrayUnaccessData@@YAJPAUtagSAFEARRAY@@@Z @ 462 NONAME
	?AfxThunkSafeArrayUnlock@@YAJPAUtagSAFEARRAY@@@Z @ 463 NONAME
	?AfxThunkSetConvertStg@@YAJPAUIStorage@@H@Z @ 464 NONAME
	?AfxThunkStgCreateDocfile@@YAJPBGKKPAPAUIStorage@@@Z @ 465 NONAME
	?AfxThunkStgCreateDocfileOnILockBytes@@YAJPAUILockBytes@@KKPAPAUIStorage@@@Z @ 466 NONAME
	?AfxThunkStgIsStorageFile@@YAJPBG@Z @ 467 NONAME
	?AfxThunkStgIsStorageILockBytes@@YAJPAUILockBytes@@@Z @ 468 NONAME
	?AfxThunkStgOpenStorage@@YAJPBGPAUIStorage@@KPAPAGKPAPAU1@@Z @ 469 NONAME
	?AfxThunkStgOpenStorageOnILockBytes@@YAJPAUILockBytes@@PAUIStorage@@KPAPAGKPAPAU2@@Z @ 470 NONAME
	?AfxThunkStringFromCLSID@@YAJABU_GUID@@PAPAG@Z @ 471 NONAME
	?AfxThunkStringFromGUID2@@YAHABU_GUID@@PAGH@Z @ 472 NONAME
	?AfxThunkSysAllocString@@YAPAGPBG@Z @ 473 NONAME
	?AfxThunkSysAllocStringByteLen@@YAPAGPBDI@Z @ 474 NONAME
	?AfxThunkSysAllocStringLen@@YAPAGPBGI@Z @ 475 NONAME
	?AfxThunkSysFreeString@@YAXPAG@Z @ 476 NONAME
	?AfxThunkSysReAllocStringLen@@YAHPAPAGPBGI@Z @ 477 NONAME
	?AfxThunkSysStringByteLen@@YAIPAG@Z @ 478 NONAME
	?AfxThunkSysStringLen@@YAIPAG@Z @ 479 NONAME
	?AfxThunkVarBstrFromCy@@YAJTtagCY@@KKPAPAG@Z @ 480 NONAME
	?AfxThunkVarBstrFromDate@@YAJNKKPAPAG@Z @ 481 NONAME
	?AfxThunkVarCyFromStr@@YAJPAGKKPATtagCY@@@Z @ 482 NONAME
	?AfxThunkVarDateFromStr@@YAJPAGKKPAN@Z @ 483 NONAME
	?AfxThunkVariantChangeType@@YAJPAUtagVARIANT@@0GG@Z @ 484 NONAME
	?AfxThunkVariantClear@@YAJPAUtagVARIANT@@@Z @ 485 NONAME
	?AfxThunkVariantCopy@@YAJPAUtagVARIANT@@0@Z @ 486 NONAME
	?AfxThunkWriteClassStg@@YAJPAUIStorage@@ABU_GUID@@@Z @ 487 NONAME
	?AfxThunkWriteClassStm@@YAJPAUIStream@@ABU_GUID@@@Z @ 488 NONAME
	?AfxThunkWriteFmtUserTypeStg@@YAJPAUIStorage@@GPAG@Z @ 489 NONAME
	?AfxUnmergeMenus@@YAXPAUHMENU__@@00@Z @ 490 NONAME
	?AfxVariantInit@@YAXPAUtagVARIANT@@@Z @ 491 NONAME
	?AfxWndProcDllOle@@YAJPAUHWND__@@IIJ@Z @ 492 NONAME
	?AllocData@COleSafeArray@@QAEXXZ @ 493 NONAME
	?AllocDescriptor@COleSafeArray@@QAEXK@Z @ 494 NONAME
	?AllocSysString@CString@@QBEPAGXZ @ 495 NONAME
	?AllocValue@CProperty@@AAEPAXK@Z @ 496 NONAME
	?AmbientAppearance@COleControl@@QAEFXZ @ 497 NONAME
	?AmbientBackColor@COleControl@@QAEKXZ @ 498 NONAME
	?AmbientDisplayName@COleControl@@QAE?AVCString@@XZ @ 499 NONAME
	?AmbientFont@COleControl@@QAEPAUIFontDisp@@XZ @ 500 NONAME
	?AmbientForeColor@COleControl@@QAEKXZ @ 501 NONAME
	?AmbientLocaleID@COleControl@@QAEKXZ @ 502 NONAME
	?AmbientScaleUnits@COleControl@@QAE?AVCString@@XZ @ 503 NONAME
	?AmbientShowGrabHandles@COleControl@@QAEHXZ @ 504 NONAME
	?AmbientShowHatching@COleControl@@QAEHXZ @ 505 NONAME
	?AmbientTextAlign@COleControl@@QAEFXZ @ 506 NONAME
	?AmbientUIDead@COleControl@@QAEHXZ @ 507 NONAME
	?AmbientUserMode@COleControl@@QAEHXZ @ 508 NONAME
	?Apply@XPropertyPage@COlePropertyPage@@UAAJXZ @ 509 NONAME
	?AssertValid@CObject@@UBEXXZ @ 510 NONAME
	?Attach@COleSafeArray@@QAEXAAUtagVARIANT@@@Z @ 511 NONAME
	?Attach@COleStreamFile@@QAEXPAUIStream@@@Z @ 512 NONAME
	?Attach@COleVariant@@QAEXAAUtagVARIANT@@@Z @ 513 NONAME
	?AttachDispatch@COleDispatchDriver@@QAEXPAUIDispatch@@H@Z @ 514 NONAME
	?AttachWindow@COleControlSite@@IAEXXZ @ 515 NONAME
	?BeginModalState@CWnd@@UAEXXZ @ 516 NONAME
	?BoundPropertyChanged@COleControl@@QAEXJ@Z @ 517 NONAME
	?BoundPropertyRequestEdit@COleControl@@QAEHJ@Z @ 518 NONAME
	?ButtonDblClk@COleControl@@IAEXGIVCPoint@@@Z @ 519 NONAME
	?ButtonDown@COleControl@@IAEXGIVCPoint@@@Z @ 520 NONAME
	?ButtonUp@COleControl@@IAEXGIVCPoint@@@Z @ 521 NONAME
	?Cache@_AFXCTL_AMBIENT_CACHE@@QAEXPAUtagQACONTAINER@@@Z @ 522 NONAME
	?Cache@CTypeLibCache@@QAEXKPAUITypeLib@@@Z @ 523 NONAME
	?CacheData@COleDataSource@@QAEXGPAUtagSTGMEDIUM@@PAUtagFORMATETC@@@Z @ 524 NONAME
	?CacheGlobalData@COleDataSource@@QAEXGPAXPAUtagFORMATETC@@@Z @ 525 NONAME
	?CacheTypeInfo@CTypeLibCache@@QAEXKABU_GUID@@PAUITypeInfo@@@Z @ 526 NONAME
	?CallMemberFunc@CCmdTarget@@IAEJPBUAFX_DISPMAP_ENTRY@@GPAUtagVARIANT@@PAUtagDISPPARAMS@@PAI@Z @ 527 NONAME
	?CanInPlaceActivate@XOleIPSite@COleControlSite@@UAAJXZ @ 528 NONAME
	?ChangeType@COleVariant@@QAEXGPAUtagVARIANT@@@Z @ 529 NONAME
	?CharSetOfFace@@YAJPAUHDC__@@PAG1@Z @ 530 NONAME
	?CharSetOfFaceCallBack@@YAHPAUtagENUMLOGFONT@@PAUtagTEXTMETRICW@@HJ@Z @ 531 NONAME
	?CheckDlgButton@COleControlContainer@@UAEXHI@Z @ 532 NONAME
	?CheckRadioButton@COleControlContainer@@UAEXHHH@Z @ 533 NONAME
	?CheckRange@COleDateTime@@IAEXXZ @ 534 NONAME
	?CheckRange@COleDateTimeSpan@@QAEXXZ @ 535 NONAME
	?ChkName@CCeFont@@QAEJPAG@Z @ 536 NONAME
	?CleanupObjectArray@COlePropertyPage@@IAEXXZ @ 537 NONAME
	?ClientToParent@COleControl@@UBEXPBUtagRECT@@PAUtagPOINT@@@Z @ 538 NONAME
	?ClipCaretRect@COleControl@@QAEHPAUtagRECT@@@Z @ 539 NONAME
	?Clone@CCeFont@@UAAJPAPAUIFont@@@Z @ 540 NONAME
	?Clone@CStreamImp@@UAAJPAPAUIStream@@@Z @ 541 NONAME
	?Clone@XEnumVOID@CEnumArray@@UAAJPAPAUIEnumVOID@@@Z @ 542 NONAME
	?Close@COleStreamFile@@UAEXXZ @ 543 NONAME
	?Close@XOleObject@COleControl@@UAAJK@Z @ 544 NONAME
	?Commit@CStreamImp@@UAAJK@Z @ 545 NONAME
	?ConnectSink@COleControlSite@@IAEKABU_GUID@@PAUIUnknown@@@Z @ 546 NONAME
	?ContextSensitiveHelp@XOleInPlaceActiveObject@COleControl@@UAAJH@Z @ 548 NONAME
	?ContextSensitiveHelp@XOleInPlaceObject@COleControl@@UAAJH@Z @ 549 NONAME
	?ContextSensitiveHelp@XOleIPFrame@COleControlContainer@@UAAJH@Z @ 550 NONAME
	?ContextSensitiveHelp@XOleIPSite@COleControlSite@@UAAJH@Z @ 551 NONAME
	?ControlInfoChanged@COleControl@@QAEXXZ @ 552 NONAME
	?Copy@COleSafeArray@@QAEXPAPAUtagSAFEARRAY@@@Z @ 553 NONAME
	?CopyTo@CStreamImp@@UAAJPAUIStream@@T_ULARGE_INTEGER@@PAT3@2@Z @ 555 NONAME
	?Create@CControlFrameWnd@@UAEHPBG@Z @ 556 NONAME
	?Create@CDateTimeCtrl@@QAEHKABUtagRECT@@PAVCWnd@@I@Z @ 557 NONAME
	?Create@CMonthCalCtrl@@QAEHKABUtagPOINT@@PAVCWnd@@I@Z @ 558 NONAME
	?Create@CMonthCalCtrl@@QAEHKABUtagRECT@@PAVCWnd@@I@Z @ 559 NONAME
	?Create@COleSafeArray@@QAEXGKPAK@Z @ 560 NONAME
	?Create@COleSafeArray@@QAEXGKPAUtagSAFEARRAYBOUND@@@Z @ 561 NONAME
	?Create@CReflectorWnd@@QAEHABVCRect@@PAUHWND__@@@Z @ 562 NONAME
	?CreateConnectionArray@CConnectionPoint@@QAEXXZ @ 563 NONAME
	?CreateContainer@COccManager@@UAEPAVCOleControlContainer@@PAVCWnd@@@Z @ 564 NONAME
	?CreateControl@COleControlContainer@@QAEHPAVCWnd@@ABU_GUID@@PBGKABUtagRECT@@IPAVCFile@@HPAGPAPAVCOleControlSite@@@Z @ 565 NONAME
	?CreateControl@COleControlContainer@@QAEHPAVCWnd@@ABU_GUID@@PBGKPBUtagPOINT@@PBUtagSIZE@@IPAVCFile@@HPAGPAPAVCOleControlSite@@@Z @ 566 NONAME
	?CreateControl@COleControlSite@@QAEJPAVCWnd@@ABU_GUID@@PBGKABUtagRECT@@IPAVCFile@@HPAG@Z @ 567 NONAME
	?CreateControl@COleControlSite@@QAEJPAVCWnd@@ABU_GUID@@PBGKPBUtagPOINT@@PBUtagSIZE@@IPAVCFile@@HPAG@Z @ 568 NONAME
	?CreateControl@CWnd@@QAEHABU_GUID@@PBGKABUtagRECT@@PAV1@IPAVCFile@@HPAG@Z @ 569 NONAME
	?CreateControl@CWnd@@QAEHABU_GUID@@PBGKPBUtagPOINT@@PBUtagSIZE@@PAV1@IPAVCFile@@HPAG@Z @ 570 NONAME
	?CreateControl@CWnd@@QAEHPBG0KABUtagRECT@@PAV1@IPAVCFile@@HPAG@Z @ 571 NONAME
	?CreateControlWindow@COleControl@@MAEHPAUHWND__@@ABVCRect@@PBUtagRECT@@@Z @ 572 NONAME
	?CreateDispatch@COleDispatchDriver@@QAEHABU_GUID@@PAVCOleException@@@Z @ 573 NONAME
	?CreateDispatch@COleDispatchDriver@@QAEHPBGPAVCOleException@@@Z @ 574 NONAME
	?CreateDlgControl@COccManager@@IAEPAUHWND__@@PAVCWnd@@PAU2@HPAUDLGITEMTEMPLATE@@GPAEK@Z @ 575 NONAME
	?CreateDlgControls@COccManager@@UAEHPAVCWnd@@PAXPAU_AFX_OCC_DIALOG_INFO@@@Z @ 576 NONAME
	?CreateDlgControls@COccManager@@UAEHPAVCWnd@@PBGPAU_AFX_OCC_DIALOG_INFO@@@Z @ 577 NONAME
	?CreateFont@CCeFont@@SAJPAUtagFONTDESC@@ABU_GUID@@PAPAX@Z @ 578 NONAME
	?CreateFrameWindow@COleControl@@MAEPAVCControlFrameWnd@@XZ @ 579 NONAME
	?CreateInstance@XClassFactory@COleObjectFactory@@UAAJPAUIUnknown@@ABU_GUID@@PAPAX@Z @ 580 NONAME
	?CreateInstanceLic@XClassFactory@COleObjectFactory@@UAAJPAUIUnknown@@0ABU_GUID@@PAGPAPAX@Z @ 581 NONAME
	?CreateMatchingFont@CCeFont@@QAEJPAPAUHFONT__@@@Z @ 582 NONAME
	?CreateMemoryStream@COleStreamFile@@QAEHPAVCFileException@@@Z @ 583 NONAME
	?CreateObject@?$CProcessLocal@V_AFX_OLE_STATE@@@@SAPAVCNoTrackObject@@XZ @ 584 NONAME
	?CreateObject@?$CProcessLocal@VCOccManager@@@@SAPAVCNoTrackObject@@XZ @ 585 NONAME
	?CreateObject@?$CThreadLocal@V_AFXCTL_AMBIENT_CACHE@@@@SAPAVCNoTrackObject@@XZ @ 586 NONAME
	?CreateOleFont@COleControlContainer@@QAEXPAVCFont@@@Z @ 587 NONAME
	?CreateOneDim@COleSafeArray@@QAEXGKPBXJ@Z @ 588 NONAME
	?CreateOrLoad@COleControlSite@@IAEJABU_GUID@@PAVCFile@@HPAG@Z @ 589 NONAME
	?CreateSite@COccManager@@UAEPAVCOleControlSite@@PAVCOleControlContainer@@@Z @ 590 NONAME
	?CreateStream@COleStreamFile@@QAEHPAUIStorage@@PBGKPAVCFileException@@@Z @ 591 NONAME
	?CreateTracker@COleControl@@IAEXHH@Z @ 592 NONAME
	?CreateTracker@COleControl@@IAEXHHPBUtagRECT@@@Z @ 593 NONAME
	?CreateWindowForSubclassedControl@COleControl@@IAEXXZ @ 594 NONAME
	?DAdvise@XDataObject@COleDataSource@@UAAJPAUtagFORMATETC@@KPAUIAdviseSink@@PAK@Z @ 595 NONAME
	?DDP_Check@@YAXPAVCDataExchange@@HAAHPBG@Z @ 596 NONAME
	?DDP_EndCheck@@YAXPAVCDataExchange@@HPAHPBG@Z @ 597 NONAME
	?DDP_EndRadio@@YAXPAVCDataExchange@@HPAHPBG@Z @ 598 NONAME
	?DDP_EndText@@YAXPAVCDataExchange@@HPAEPBG@Z @ 599 NONAME
	?DDP_EndText@@YAXPAVCDataExchange@@HPAFPBG@Z @ 600 NONAME
	?DDP_EndText@@YAXPAVCDataExchange@@HPAHPBG@Z @ 601 NONAME
	?DDP_EndText@@YAXPAVCDataExchange@@HPAIPBG@Z @ 602 NONAME
	?DDP_EndText@@YAXPAVCDataExchange@@HPAJPBG@Z @ 603 NONAME
	?DDP_EndText@@YAXPAVCDataExchange@@HPAKPBG@Z @ 604 NONAME
	?DDP_EndText@@YAXPAVCDataExchange@@HPAMPBG@Z @ 605 NONAME
	?DDP_EndText@@YAXPAVCDataExchange@@HPANPBG@Z @ 606 NONAME
	?DDP_EndText@@YAXPAVCDataExchange@@HPAVCString@@PBG@Z @ 607 NONAME
	?DDP_PostProcessing@@YAXPAVCDataExchange@@@Z @ 608 NONAME
	?DDP_Radio@@YAXPAVCDataExchange@@HAAHPBG@Z @ 609 NONAME
	?DDP_Text@@YAXPAVCDataExchange@@HAAEPBG@Z @ 610 NONAME
	?DDP_Text@@YAXPAVCDataExchange@@HAAFPBG@Z @ 611 NONAME
	?DDP_Text@@YAXPAVCDataExchange@@HAAHPBG@Z @ 612 NONAME
	?DDP_Text@@YAXPAVCDataExchange@@HAAIPBG@Z @ 613 NONAME
	?DDP_Text@@YAXPAVCDataExchange@@HAAJPBG@Z @ 614 NONAME
	?DDP_Text@@YAXPAVCDataExchange@@HAAKPBG@Z @ 615 NONAME
	?DDP_Text@@YAXPAVCDataExchange@@HAAMPBG@Z @ 616 NONAME
	?DDP_Text@@YAXPAVCDataExchange@@HAANPBG@Z @ 617 NONAME
	?DDP_Text@@YAXPAVCDataExchange@@HAAVCString@@PBG@Z @ 618 NONAME
	?DDV_MinMaxDateTime@@YAXPAVCDataExchange@@AAVCOleDateTime@@PBV2@2@Z @ 619 NONAME
	?DDV_MinMaxDateTime@@YAXPAVCDataExchange@@AAVCTime@@PBV2@2@Z @ 620 NONAME
	?DDV_MinMaxMonth@@YAXPAVCDataExchange@@AAVCOleDateTime@@PBV2@2@Z @ 621 NONAME
	?DDV_MinMaxMonth@@YAXPAVCDataExchange@@AAVCTime@@PBV2@2@Z @ 622 NONAME
	?DDX_DateTimeCtrl@@YAXPAVCDataExchange@@HAAVCOleDateTime@@@Z @ 623 NONAME
	?DDX_DateTimeCtrl@@YAXPAVCDataExchange@@HAAVCTime@@@Z @ 624 NONAME
	?DDX_MonthCalCtrl@@YAXPAVCDataExchange@@HAAVCOleDateTime@@@Z @ 625 NONAME
	?DDX_MonthCalCtrl@@YAXPAVCDataExchange@@HAAVCTime@@@Z @ 626 NONAME
	?DDX_OCBool@@YAXPAVCDataExchange@@HJAAH@Z @ 627 NONAME
	?DDX_OCBoolRO@@YAXPAVCDataExchange@@HJAAH@Z @ 628 NONAME
	?DDX_OCColor@@YAXPAVCDataExchange@@HJAAK@Z @ 629 NONAME
	?DDX_OCColorRO@@YAXPAVCDataExchange@@HJAAK@Z @ 630 NONAME
	?DDX_OCFloat@@YAXPAVCDataExchange@@HJAAM@Z @ 631 NONAME
	?DDX_OCFloat@@YAXPAVCDataExchange@@HJAAN@Z @ 632 NONAME
	?DDX_OCFloatRO@@YAXPAVCDataExchange@@HJAAM@Z @ 633 NONAME
	?DDX_OCFloatRO@@YAXPAVCDataExchange@@HJAAN@Z @ 634 NONAME
	?DDX_OCInt@@YAXPAVCDataExchange@@HJAAH@Z @ 635 NONAME
	?DDX_OCInt@@YAXPAVCDataExchange@@HJAAJ@Z @ 636 NONAME
	?DDX_OCIntRO@@YAXPAVCDataExchange@@HJAAH@Z @ 637 NONAME
	?DDX_OCIntRO@@YAXPAVCDataExchange@@HJAAJ@Z @ 638 NONAME
	?DDX_OCShort@@YAXPAVCDataExchange@@HJAAF@Z @ 639 NONAME
	?DDX_OCShortRO@@YAXPAVCDataExchange@@HJAAF@Z @ 640 NONAME
	?DDX_OCText@@YAXPAVCDataExchange@@HJAAVCString@@@Z @ 641 NONAME
	?DDX_OCTextRO@@YAXPAVCDataExchange@@HJAAVCString@@@Z @ 642 NONAME
	?DDX_Text@@YAXPAVCDataExchange@@HAAVCOleCurrency@@@Z @ 643 NONAME
	?DDX_Text@@YAXPAVCDataExchange@@HAAVCOleDateTime@@@Z @ 644 NONAME
	?Deactivate@XPropertyPage@COlePropertyPage@@UAAJXZ @ 645 NONAME
	?DeactivateAndUndo@XOleIPSite@COleControlSite@@UAAJXZ @ 646 NONAME
	?DefWindowProcW@COleControl@@MAEJIIJ@Z @ 647 NONAME
	?DelayRenderData@COleDataSource@@QAEXGPAUtagFORMATETC@@@Z @ 648 NONAME
	?DelayRenderFileData@COleDataSource@@QAEXGPAUtagFORMATETC@@@Z @ 649 NONAME
	?DelaySetData@COleDataSource@@QAEXGPAUtagFORMATETC@@@Z @ 650 NONAME
	?Destroy@COleSafeArray@@QAEXXZ @ 651 NONAME
	?DestroyControl@COleControlSite@@UAEHXZ @ 652 NONAME
	?DestroyData@COleSafeArray@@QAEXXZ @ 653 NONAME
	?DestroyDescriptor@COleSafeArray@@QAEXXZ @ 654 NONAME
	?DestroyTracker@COleControl@@IAEXXZ @ 655 NONAME
	?Detach@COleSafeArray@@QAE?AUtagVARIANT@@XZ @ 657 NONAME
	?Detach@COleStreamFile@@QAEPAUIStream@@XZ @ 658 NONAME
	?Detach@COleVariant@@QAE?AUtagVARIANT@@XZ @ 659 NONAME
	?Detach@CWindowlessDC@@QAEPAUHDC__@@XZ @ 660 NONAME
	?DetachDispatch@COleDispatchDriver@@QAEPAUIDispatch@@XZ @ 661 NONAME
	?DetachWindow@COleControlSite@@IAEXXZ @ 662 NONAME
	?DiscardFont@CCeFont@@QAEJHJ@Z @ 663 NONAME
	?DiscardUndoState@XOleIPSite@COleControlSite@@UAAJXZ @ 664 NONAME
	?Disconnect@COleDispatchImpl@@UAEXXZ @ 665 NONAME
	?DisconnectSink@COleControlSite@@IAEXABU_GUID@@K@Z @ 666 NONAME
	?DisplayError@COleControl@@UAEXJPBG00I@Z @ 667 NONAME
	?DoClick@COleControl@@QAEXXZ @ 668 NONAME
	?DoDataExchange@CWnd@@MAEXPAVCDataExchange@@@Z @ 669 NONAME
	?DoOleVerb@CCmdTarget@@QAEHJPAUtagMSG@@PAUHWND__@@PBUtagRECT@@@Z @ 670 NONAME
	?DoPropExchange@COleControl@@UAEXPAVCPropExchange@@@Z @ 671 NONAME
	?DoSuperclassPaint@COleControl@@QAEXPAVCDC@@ABVCRect@@@Z @ 672 NONAME
	?DoVerb@COleControlSite@@UAEJJPAUtagMSG@@@Z @ 673 NONAME
	?DoVerb@XOleObject@COleControl@@UAAJJPAUtagMSG@@PAUIOleClientSite@@JPAUHWND__@@PBUtagRECT@@@Z @ 674 NONAME
	?Draw@XViewObject@COleControl@@UAAJKJPAXPAUtagDVTARGETDEVICE@@PAUHDC__@@2PBU_RECTL@@3P6AHK@ZK@Z @ 675 NONAME
	?DrawContent@COleControl@@IAEXPAVCDC@@AAVCRect@@@Z @ 676 NONAME
	?DrawTextW@CDC@@UAEHPBGHPAUtagRECT@@I@Z @ 677 NONAME
	?Dump@CObject@@UBEXAAVCDumpContext@@@Z @ 678 NONAME
	?DUnadvise@XDataObject@COleDataSource@@UAAJK@Z @ 679 NONAME
	?Duplicate@COleStreamFile@@UBEPAVCFile@@XZ @ 680 NONAME
	?EditProperty@XPropertyPage@COlePropertyPage@@UAAJJ@Z @ 681 NONAME
	?Empty@COleDataSource@@QAEXXZ @ 682 NONAME
	?EnableAggregation@CCmdTarget@@QAEXXZ @ 683 NONAME
	?EnableAutomation@CCmdTarget@@QAEXXZ @ 684 NONAME
	?EnableConnections@CCmdTarget@@QAEXXZ @ 685 NONAME
	?EnableModeless@XOleInPlaceActiveObject@COleControl@@UAAJH@Z @ 686 NONAME
	?EnableModeless@XOleIPFrame@COleControlContainer@@UAAJH@Z @ 687 NONAME
	?EnableSimpleFrame@COleControl@@QAEXXZ @ 688 NONAME
	?EnableTypeLib@CCmdTarget@@QAEXXZ @ 689 NONAME
	?EnableWindow@COleControlSite@@UAEHH@Z @ 690 NONAME
	?EndModalState@CWnd@@UAEXXZ @ 691 NONAME
	?EnumAdvise@XOleObject@COleControl@@UAAJPAPAUIEnumSTATDATA@@@Z @ 692 NONAME
	?EnumChildProc@COlePropertyPage@@KAHPAUHWND__@@J@Z @ 693 NONAME
	?EnumConnectionPoints@COleConnPtContainer@@UAAJPAPAUIEnumConnectionPoints@@@Z @ 694 NONAME
	?EnumConnections@XConnPt@CConnectionPoint@@UAAJPAPAUIEnumConnections@@@Z @ 695 NONAME
	?EnumControls@COlePropertyPage@@KAHPAUHWND__@@J@Z @ 696 NONAME
	?EnumDAdvise@XDataObject@COleDataSource@@UAAJPAPAUIEnumSTATDATA@@@Z @ 697 NONAME
	?EnumFormatEtc@XDataObject@COleDataSource@@UAAJKPAPAUIEnumFORMATETC@@@Z @ 698 NONAME
	?EnumObjects@XOleContainer@COleControlContainer@@UAAJKPAPAUIEnumUnknown@@@Z @ 699 NONAME
	?EnumOleVerbs@CCmdTarget@@QAEHPAPAUIEnumOLEVERB@@@Z @ 700 NONAME
	?EnumVerbs@XOleObject@COleControl@@UAAJPAPAUIEnumOLEVERB@@@Z @ 701 NONAME
	?ExchangeBlobProp@CArchivePropExchange@@UAEHPBGPAPAXPAX@Z @ 702 NONAME
	?ExchangeBlobProp@CAsyncPropExchange@@UAEHPBGPAPAXPAX@Z @ 703 NONAME
	?ExchangeBlobProp@CPropbagPropExchange@@UAEHPBGPAPAXPAX@Z @ 704 NONAME
	?ExchangeBlobProp@CPropsetPropExchange@@UAEHPBGPAPAXPAX@Z @ 705 NONAME
	?ExchangeBlobProp@CResetPropExchange@@UAEHPBGPAPAXPAX@Z @ 706 NONAME
	?ExchangeExtent@COleControl@@QAEHPAVCPropExchange@@@Z @ 707 NONAME
	?ExchangeFontProp@CArchivePropExchange@@UAEHPBGAAVCFontHolder@@PBUtagFONTDESC@@PAUIFontDisp@@@Z @ 708 NONAME
	?ExchangeFontProp@CAsyncPropExchange@@UAEHPBGAAVCFontHolder@@PBUtagFONTDESC@@PAUIFontDisp@@@Z @ 709 NONAME
	?ExchangeFontProp@CPropbagPropExchange@@UAEHPBGAAVCFontHolder@@PBUtagFONTDESC@@PAUIFontDisp@@@Z @ 710 NONAME
	?ExchangeFontProp@CPropsetPropExchange@@UAEHPBGAAVCFontHolder@@PBUtagFONTDESC@@PAUIFontDisp@@@Z @ 711 NONAME
	?ExchangeFontProp@CResetPropExchange@@UAEHPBGAAVCFontHolder@@PBUtagFONTDESC@@PAUIFontDisp@@@Z @ 712 NONAME
	?ExchangePersistentProp@CArchivePropExchange@@UAEHPBGPAPAUIUnknown@@ABU_GUID@@PAU2@@Z @ 713 NONAME
	?ExchangePersistentProp@CAsyncPropExchange@@UAEHPBGPAPAUIUnknown@@ABU_GUID@@PAU2@@Z @ 714 NONAME
	?ExchangePersistentProp@CPropbagPropExchange@@UAEHPBGPAPAUIUnknown@@ABU_GUID@@PAU2@@Z @ 715 NONAME
	?ExchangePersistentProp@CPropsetPropExchange@@UAEHPBGPAPAUIUnknown@@ABU_GUID@@PAU2@@Z @ 716 NONAME
	?ExchangePersistentProp@CResetPropExchange@@UAEHPBGPAPAUIUnknown@@ABU_GUID@@PAU2@@Z @ 717 NONAME
	?ExchangeProp@CArchivePropExchange@@UAEHPBGGPAXPBX@Z @ 718 NONAME
	?ExchangeProp@CAsyncPropExchange@@UAEHPBGGPAXPBX@Z @ 719 NONAME
	?ExchangeProp@CPropbagPropExchange@@UAEHPBGGPAXPBX@Z @ 720 NONAME
	?ExchangeProp@CPropsetPropExchange@@UAEHPBGGPAXPBX@Z @ 721 NONAME
	?ExchangeProp@CResetPropExchange@@UAEHPBGGPAXPBX@Z @ 722 NONAME
	?ExchangeStockProps@COleControl@@QAEXPAVCPropExchange@@@Z @ 723 NONAME
	?ExchangeVersion@CAsyncPropExchange@@UAEHAAKKH@Z @ 724 NONAME
	?ExchangeVersion@CPropExchange@@UAEHAAKKH@Z @ 725 NONAME
	?ExitInstance@COleControlModule@@UAEHXZ @ 726 NONAME
	?ExternalAddRef@CCmdTarget@@QAEKXZ @ 727 NONAME
	?ExternalDisconnect@CCmdTarget@@QAEXXZ @ 728 NONAME
	?ExternalQueryInterface@CCmdTarget@@QAEKPBXPAPAX@Z @ 729 NONAME
	?ExternalRelease@CCmdTarget@@QAEKXZ @ 730 NONAME
	?ExtTextOutW@CDC@@UAEHHHIPBUtagRECT@@PBGIPAH@Z @ 731 NONAME
	?FindConnectionPoint@COleConnPtContainer@@UAAJABU_GUID@@PAPAUIConnectionPoint@@@Z @ 732 NONAME
	?FindItem@COleControlContainer@@UBEPAVCOleControlSite@@I@Z @ 733 NONAME
	?FindMatchingFont@CCeFont@@QAEJPAH@Z @ 734 NONAME
	?FireError@COleControl@@QAEXJPBGI@Z @ 735 NONAME
	?FireEvent@COleControl@@QAAXJPAEZZ @ 736 NONAME
	?FireEventV@COleControl@@IAEXJPAEPAD@Z @ 737 NONAME
	?Flush@COleStreamFile@@UAEXXZ @ 738 NONAME
	?FontToCeFont@CFontHolder@@QAEXXZ @ 739 NONAME
	?Format@COleCurrency@@QBE?AVCString@@KK@Z @ 740 NONAME
	?Format@COleDateTime@@QBE?AVCString@@KK@Z @ 741 NONAME
	?ForwardActivationMsg@COleControl@@IAEXPAUtagMSG@@@Z @ 742 NONAME
	?FreeValue@CProperty@@AAEXXZ @ 743 NONAME
	?Freeze@XViewObject@COleControl@@UAAJKJPAXPAK@Z @ 744 NONAME
	?FreezeAllEvents@COleControlContainer@@QAEXH@Z @ 745 NONAME
	?FreezeEvents@COleControlSite@@QAEXH@Z @ 746 NONAME
	?FreezeEvents@XOleControl@COleControl@@UAAJH@Z @ 747 NONAME
	?FrEq@@YAHPAUFR@@0@Z @ 1668 NONAME
	?FromIDispatch@CCmdTarget@@SAPAV1@PAUIDispatch@@@Z @ 748 NONAME
	?Get@CProperty@@QAEPAXPAK@Z @ 749 NONAME
	?Get@CProperty@@QAEPAXXZ @ 750 NONAME
	?Get@CPropertySection@@QAEPAXK@Z @ 751 NONAME
	?Get@CPropertySection@@QAEPAXKPAK@Z @ 752 NONAME
	?Get@CPropertySet@@QAEPAXU_GUID@@K@Z @ 753 NONAME
	?Get@CPropertySet@@QAEPAXU_GUID@@KPAK@Z @ 754 NONAME
	?get_Bold@CCeFont@@UAAJPAH@Z @ 755 NONAME
	?get_Charset@CCeFont@@UAAJPAF@Z @ 756 NONAME
	?get_hFont@CCeFont@@UAAJPAPAUHFONT__@@@Z @ 757 NONAME
	?get_Italic@CCeFont@@UAAJPAH@Z @ 758 NONAME
	?get_Name@CCeFont@@UAAJPAPAG@Z @ 759 NONAME
	?get_Size@CCeFont@@UAAJPATtagCY@@@Z @ 760 NONAME
	?get_Strikethrough@CCeFont@@UAAJPAH@Z @ 761 NONAME
	?get_Underline@CCeFont@@UAAJPAH@Z @ 762 NONAME
	?get_Weight@CCeFont@@UAAJPAF@Z @ 763 NONAME
	?GetActivationPolicy@COleControl@@UAEKXZ @ 764 NONAME
	?GetActivationPolicy@XPointerInactive@COleControl@@UAAJPAK@Z @ 765 NONAME
	?GetAdvise@XViewObject@COleControl@@UAAJPAK0PAPAUIAdviseSink@@@Z @ 766 NONAME
	?GetAmbientDispatchDriver@COleControl@@IAEPAVCOleDispatchDriver@@XZ @ 767 NONAME
	?GetAmbientProp@COleControlContainer@@UAEHPAVCOleControlSite@@JPAUtagVARIANT@@@Z @ 768 NONAME
	?GetAmbientProperty@COleControl@@QAEHJGPAX@Z @ 769 NONAME
	?GetAppearance@COleControl@@QAEFXZ @ 770 NONAME
	?GetAsSystemTime@COleDateTime@@QBEHAAU_SYSTEMTIME@@@Z @ 771 NONAME
	?GetAt@CAfxOleSymbolTable@@QBEPBGH@Z @ 772 NONAME
	?GetBackColor@COleControl@@QAEKXZ @ 773 NONAME
	?GetBlob@CBlobProperty@@QAEPAXXZ @ 774 NONAME
	?GetBorder@XOleIPFrame@COleControlContainer@@UAAJPAUtagRECT@@@Z @ 775 NONAME
	?GetBorderStyle@COleControl@@QAEFXZ @ 776 NONAME
	?GetByteOrder@CPropertySet@@QAEGXZ @ 777 NONAME
	?GetCacheEntry@COleDataSource@@IAEPAUAFX_DATACACHE_ENTRY@@PAUtagFORMATETC@@W4tagDATADIR@@@Z @ 778 NONAME
	?GetCanonicalFormatEtc@XDataObject@COleDataSource@@UAAJPAUtagFORMATETC@@0@Z @ 779 NONAME
	?GetCapture@COleControl@@QAEPAVCWnd@@XZ @ 780 NONAME
	?GetClassID@CBlobProperty@@UAAJPAU_GUID@@@Z @ 781 NONAME
	?GetClassID@CCeFont@@UAAJPAU_GUID@@@Z @ 782 NONAME
	?GetClassID@CCeFont@@W3AAJPAU_GUID@@@Z @ 783 NONAME
	?GetClassID@CCeFont@@W7AAJPAU_GUID@@@Z @ 784 NONAME
	?GetClassID@CPropertySet@@QAE?AU_GUID@@XZ @ 785 NONAME
	?GetClassID@XPersistMemory@COleControl@@UAAJPAU_GUID@@@Z @ 786 NONAME
	?GetClassID@XPersistPropertyBag@COleControl@@UAAJPAU_GUID@@@Z @ 787 NONAME
	?GetClassID@XPersistStorage@COleControl@@UAAJPAU_GUID@@@Z @ 788 NONAME
	?GetClassID@XPersistStreamInit@COleControl@@UAAJPAU_GUID@@@Z @ 789 NONAME
	?GetClassInfoW@XProvideClassInfo@COleControl@@UAAJPAPAUITypeInfo@@@Z @ 790 NONAME
	?GetClientOffset@COleControl@@UBEXPAJ0@Z @ 791 NONAME
	?GetClientRect@COleControl@@UBEXPAUtagRECT@@@Z @ 792 NONAME
	?GetClientSite@COleControl@@QAEPAUIOleClientSite@@XZ @ 793 NONAME
	?GetClientSite@XOleObject@COleControl@@UAAJPAPAUIOleClientSite@@@Z @ 794 NONAME
	?GetClipboardData@XOleObject@COleControl@@UAAJKPAPAUIDataObject@@@Z @ 795 NONAME
	?GetColorSet@XViewObject@COleControl@@UAAJKJPAXPAUtagDVTARGETDEVICE@@PAUHDC__@@PAPAUtagLOGPALETTE@@@Z @ 796 NONAME
	?GetConnectionCount@CConnectionPoint@@QAEHXZ @ 797 NONAME
	?GetConnectionHook@COleControl@@MAEPAUIConnectionPoint@@ABU_GUID@@@Z @ 798 NONAME
	?GetConnectionInterface@XConnPt@CConnectionPoint@@UAAJPAU_GUID@@@Z @ 799 NONAME
	?GetConnectionMap@COleControl@@MBEPBUAFX_CONNECTIONMAP@@XZ @ 800 NONAME
	?GetConnectionPointContainer@XConnPt@CConnectionPoint@@UAAJPAPAUIConnectionPointContainer@@@Z @ 801 NONAME
	?GetConnections@CConnectionPoint@@QAEPBVCPtrArray@@XZ @ 802 NONAME
	?GetContainer@CConnectionPoint@@UAEPAUIConnectionPointContainer@@XZ @ 803 NONAME
	?GetContainer@XOleClientSite@COleControlSite@@UAAJPAPAUIOleContainer@@@Z @ 804 NONAME
	?GetContentExtent@XQuickActivate@COleControl@@UAAJPAUtagSIZE@@@Z @ 805 NONAME
	?GetControlFlags@COleControl@@UAEKXZ @ 806 NONAME
	?GetControlInfo@COleControlSite@@QAEXXZ @ 807 NONAME
	?GetControlInfo@XOleControl@COleControl@@UAAJPAUtagCONTROLINFO@@@Z @ 808 NONAME
	?GetControllingUnknown@CCmdTarget@@QAEPAUIUnknown@@XZ @ 809 NONAME
	?GetControlSize@COleControl@@QAEXPAH0@Z @ 810 NONAME
	?GetControlStatus@COlePropertyPage@@QAEHI@Z @ 811 NONAME
	?GetCount@CPropertySection@@QAEKXZ @ 812 NONAME
	?GetCount@CPropertySet@@QAEKXZ @ 813 NONAME
	?GetCurrentTime@COleDateTime@@SA?AV1@XZ @ 814 NONAME
	?GetCurSel@CMonthCalCtrl@@QBEHAAVCOleDateTime@@@Z @ 815 NONAME
	?GetCurSel@CMonthCalCtrl@@QBEHAAVCTime@@@Z @ 816 NONAME
	?GetCursor@COleControlSite@@IAEJJPAPAUIUnknown@@PAPAX@Z @ 817 NONAME
	?GetData@XDataObject@COleDataSource@@UAAJPAUtagFORMATETC@@PAUtagSTGMEDIUM@@@Z @ 818 NONAME
	?GetDataHere@XDataObject@COleDataSource@@UAAJPAUtagFORMATETC@@PAUtagSTGMEDIUM@@@Z @ 819 NONAME
	?GetDataSource@COleControl@@IAEPAVCControlDataSource@1@XZ @ 820 NONAME
	?GetDay@COleDateTime@@QBEHXZ @ 821 NONAME
	?GetDayOfWeek@COleDateTime@@QBEHXZ @ 822 NONAME
	?GetDayOfYear@COleDateTime@@QBEHXZ @ 823 NONAME
	?GetDC@COleControl@@QAEPAVCDC@@PBUtagRECT@@K@Z @ 824 NONAME
	?GetDefBtnCode@COccManager@@SAKPAVCWnd@@@Z @ 825 NONAME
	?GetDefBtnCode@COleControlSite@@QAEKXZ @ 826 NONAME
	?GetDispatchIID@COleControl@@MAEHPAU_GUID@@@Z @ 827 NONAME
	?GetDispatchMap@COleControlContainer@@MBEPBUAFX_DISPMAP@@XZ @ 828 NONAME
	?GetDispEntry@CCmdTarget@@IAAPBUAFX_DISPMAP_ENTRY@@J@Z @ 829 NONAME
	?GetDisplayString@CFontHolder@@QAEHAAVCString@@@Z @ 830 NONAME
	?GetDisplayString@XPerPropertyBrowsing@COleControl@@UAAJJPAPAG@Z @ 831 NONAME
	?GetDlgCtrlID@COleControlSite@@UBEHXZ @ 832 NONAME
	?GetDlgItem@COleControlContainer@@UBEPAVCWnd@@H@Z @ 833 NONAME
	?GetDlgItem@COleControlContainer@@UBEXHPAPAUHWND__@@@Z @ 834 NONAME
	?GetDlgItemInt@COleControlContainer@@UBEIHPAHH@Z @ 835 NONAME
	?GetDlgItemText@COleControlContainer@@UBEHHPAGH@Z @ 836 NONAME
	?GetDropTarget@XOleInPlaceObject@COleControl@@UAAJPAPAUIDropTarget@@@Z @ 837 NONAME
	?GetElement@COleSafeArray@@QAEXPAJPAX@Z @ 838 NONAME
	?GetEnabled@COleControl@@QAEHXZ @ 839 NONAME
	?GetEntryCount@CCmdTarget@@KAIPBUAFX_DISPMAP@@@Z @ 840 NONAME
	?GetErrorMessage@COleDispatchException@@UAEHPAGIPAI@Z @ 841 NONAME
	?GetErrorMessage@COleException@@UAEHPAGIPAI@Z @ 842 NONAME
	?GetEventIID@COleControlSite@@QAEHPAU_GUID@@@Z @ 843 NONAME
	?GetEventMap@COleControl@@MBEPBUAFX_EVENTMAP@@XZ @ 844 NONAME
	?GetEventMapEntry@COleControl@@IBEPBUAFX_EVENTMAP_ENTRY@@PBGPAJ@Z @ 845 NONAME
	?GetEventSinkEntry@CCmdTarget@@IAAPBUAFX_EVENTSINKMAP_ENTRY@@IPAUAFX_EVENT@@@Z @ 846 NONAME
	?GetExStyle@COleControlSite@@UBEKXZ @ 847 NONAME
	?GetExtendedControl@COleControl@@QAEPAUIDispatch@@XZ @ 848 NONAME
	?GetExtendedControl@XOleControlSite@COleControlSite@@UAAJPAPAUIDispatch@@@Z @ 849 NONAME
	?GetExtent@XOleObject@COleControl@@UAAJKPAUtagSIZE@@@Z @ 850 NONAME
	?GetExtent@XViewObject@COleControl@@UAAJKJPAUtagDVTARGETDEVICE@@PAUtagSIZE@@@Z @ 851 NONAME
	?GetExtraConnectionPoints@COleControl@@MAEHPAVCPtrArray@@@Z @ 852 NONAME
	?GetFirstDayOfWeek@CMonthCalCtrl@@QBEHPAH@Z @ 853 NONAME
	?GetFocus@COleControl@@QAEPAVCWnd@@XZ @ 854 NONAME
	?GetFont@COleControl@@QAEPAUIFontDisp@@XZ @ 855 NONAME
	?GetFont@CWnd@@QBEPAVCFont@@XZ @ 1669 NONAME
	?GetFontDispatch@CFontHolder@@QAEPAUIFontDisp@@XZ @ 856 NONAME
	?GetFontHandle@CFontHolder@@QAEPAUHFONT__@@JJ@Z @ 857 NONAME
	?GetFontHandle@CFontHolder@@QAEPAUHFONT__@@XZ @ 858 NONAME
	?GetFontTextMetrics@COleControl@@QAEXPAUtagTEXTMETRICW@@AAVCFontHolder@@@Z @ 859 NONAME
	?GetForeColor@COleControl@@QAEKXZ @ 860 NONAME
	?GetFormatID@CPropertySection@@QAE?AU_GUID@@XZ @ 861 NONAME
	?GetFormatVersion@CPropertySet@@QAEGXZ @ 862 NONAME
	?GetGUID@XProvideClassInfo@COleControl@@UAAJKPAU_GUID@@@Z @ 863 NONAME
	?GetHour@COleDateTime@@QBEHXZ @ 864 NONAME
	?GetHours@COleDateTimeSpan@@QBEJXZ @ 865 NONAME
	?GetHwnd@COleControl@@QAEIXZ @ 866 NONAME
	?GetID@COleControlSite@@QAEIXZ @ 867 NONAME
	?GetID@CProperty@@QAEKXZ @ 868 NONAME
	?GetID@CPropertySection@@QAEHPBGPAK@Z @ 869 NONAME
	?GetIDispatch@CCmdTarget@@QAEPAUIDispatch@@H@Z @ 870 NONAME
	?GetIDsOfNames@CCeFont@@UAAJABU_GUID@@PAPAGIKPAJ@Z @ 871 NONAME
	?GetIDsOfNames@COleDispatchImpl@@UAAJABU_GUID@@PAPAGIKPAJ@Z @ 872 NONAME
	?GetIDsOfNames@XAmbientProps@COleControlSite@@UAAJABU_GUID@@PAPAGIKPAJ@Z @ 873 NONAME
	?GetIDsOfNames@XEventSink@COleControlSite@@UAAJABU_GUID@@PAPAGIKPAJ@Z @ 874 NONAME
	?GetIID@XEventConnPt@COleControl@@UAEABU_GUID@@XZ @ 875 NONAME
	?GetIID@XPropConnPt@COleControl@@UAEABU_GUID@@XZ @ 876 NONAME
	?GetInterface@CCmdTarget@@QAEPAUIUnknown@@PBX@Z @ 877 NONAME
	?GetInterface@CUnknown@@QAEJPAUIUnknown@@PAPAX@Z @ 878 NONAME
	?GetInterfaceHook@COleControl@@MAEPAUIUnknown@@PBX@Z @ 879 NONAME
	?GetInterfaceMap@CEnumConnections@@MBEPBUAFX_INTERFACEMAP@@XZ @ 880 NONAME
	?GetInterfaceMap@CEnumConnPoints@@MBEPBUAFX_INTERFACEMAP@@XZ @ 881 NONAME
	?GetInterfaceMap@CEnumOleVerb@@MBEPBUAFX_INTERFACEMAP@@XZ @ 882 NONAME
	?GetInterfaceMap@CEnumUnknown@@MBEPBUAFX_INTERFACEMAP@@XZ @ 883 NONAME
	?GetInterfaceMap@COleControl@@MBEPBUAFX_INTERFACEMAP@@XZ @ 884 NONAME
	?GetInterfaceMap@COleControlContainer@@MBEPBUAFX_INTERFACEMAP@@XZ @ 885 NONAME
	?GetInterfaceMap@COleControlSite@@MBEPBUAFX_INTERFACEMAP@@XZ @ 886 NONAME
	?GetInterfaceMap@COleDataSource@@MBEPBUAFX_INTERFACEMAP@@XZ @ 887 NONAME
	?GetInterfaceMap@COleObjectFactory@@MBEPBUAFX_INTERFACEMAP@@XZ @ 888 NONAME
	?GetInterfaceMap@COlePropertyPage@@MBEPBUAFX_INTERFACEMAP@@XZ @ 889 NONAME
	?GetLBound@COleSafeArray@@QAEXKPAJ@Z @ 890 NONAME
	?GetLength@COleStreamFile@@UBEKXZ @ 891 NONAME
	?GetLicenseKey@COleObjectFactory@@MAEHKPAPAG@Z @ 892 NONAME
	?GetLicInfo@XClassFactory@COleObjectFactory@@UAAJPAUtagLICINFO@@@Z @ 893 NONAME
	?GetList@CPropertySection@@QAEPAVCPtrList@@XZ @ 894 NONAME
	?GetList@CPropertySet@@QAEPAVCPtrList@@XZ @ 895 NONAME
	?GetMaxConnections@CConnectionPoint@@UAEHXZ @ 896 NONAME
	?GetMessageMap@CControlFrameWnd@@MBEPBUAFX_MSGMAP@@XZ @ 897 NONAME
	?GetMessageMap@COleControl@@MBEPBUAFX_MSGMAP@@XZ @ 898 NONAME
	?GetMessageMap@COlePropertyPage@@MBEPBUAFX_MSGMAP@@XZ @ 899 NONAME
	?GetMessageString@COleControl@@UBEXIAAVCString@@@Z @ 900 NONAME
	?GetMinute@COleDateTime@@QBEHXZ @ 901 NONAME
	?GetMinutes@COleDateTimeSpan@@QBEJXZ @ 902 NONAME
	?GetMiscStatus@XOleObject@COleControl@@UAAJKPAK@Z @ 903 NONAME
	?GetMoniker@XOleClientSite@COleControlSite@@UAAJKKPAPAUIMoniker@@@Z @ 904 NONAME
	?GetMoniker@XOleObject@COleControl@@UAAJKKPAPAUIMoniker@@@Z @ 905 NONAME
	?GetMonth@COleDateTime@@QBEHXZ @ 906 NONAME
	?GetMonthRange@CMonthCalCtrl@@QBEHAAVCOleDateTime@@0K@Z @ 907 NONAME
	?GetMonthRange@CMonthCalCtrl@@QBEHAAVCTime@@0K@Z @ 908 NONAME
	?GetMonthRange@CMonthCalCtrl@@QBEHPAU_SYSTEMTIME@@0K@Z @ 909 NONAME
	?GetNaturalExtent@XViewObject@COleControl@@UAAJKJPAUtagDVTARGETDEVICE@@PAUHDC__@@PAUtagExtentInfo@@PAUtagSIZE@@@Z @ 910 NONAME
	?GetNextConnection@CConnectionPoint@@QBEPAUIUnknown@@AAPAU__POSITION@@@Z @ 911 NONAME
	?GetNotSupported@CCmdTarget@@QAEXXZ @ 912 NONAME
	?GetNotSupported@COleControl@@QAEXXZ @ 913 NONAME
	?GetObjectArray@COlePropertyPage@@QAEPAPAUIDispatch@@PAK@Z @ 914 NONAME
	?GetOneDimSize@COleSafeArray@@QAEKXZ @ 915 NONAME
	?GetOSVersion@CPropertySet@@QAEKXZ @ 916 NONAME
	?GetOuterWindow@COleControl@@IBEPAVCWnd@@XZ @ 917 NONAME
	?GetPageInfo@XPropertyPage@COlePropertyPage@@UAAJPAUtagPROPPAGEINFO@@@Z @ 918 NONAME
	?GetPages@XSpecifyPropertyPages@COleControl@@UAAJPAUtagCAUUID@@@Z @ 919 NONAME
	?GetPageSite@COlePropertyPage@@QAEPAUIPropertyPageSite@@XZ @ 920 NONAME
	?GetPosition@COleStreamFile@@UBEKXZ @ 921 NONAME
	?GetPredefinedStrings@XPerPropertyBrowsing@COleControl@@UAAJJPAUtagCALPOLESTR@@PAUtagCADWORD@@@Z @ 922 NONAME
	?GetPredefinedValue@XPerPropertyBrowsing@COleControl@@UAAJJKPAUtagVARIANT@@@Z @ 923 NONAME
	?GetPropCheck@COlePropertyPage@@QAEHPBGPAH@Z @ 924 NONAME
	?GetProperty@COleControlSite@@UBEXJGPAX@Z @ 925 NONAME
	?GetProperty@COleDispatchDriver@@QBEXJGPAX@Z @ 926 NONAME
	?GetProperty@CPropertySection@@QAEPAVCProperty@@K@Z @ 927 NONAME
	?GetProperty@CPropertySet@@QAEPAVCProperty@@U_GUID@@K@Z @ 928 NONAME
	?GetPropIndex@COlePropertyPage@@QAEHPBGPAH@Z @ 929 NONAME
	?GetPropPageIDs@COleControl@@MAEPAU_GUID@@AAK@Z @ 930 NONAME
	?GetPropRadio@COlePropertyPage@@QAEHPBGPAH@Z @ 931 NONAME
	?GetPropsetData@COleControl@@IAEHPAUtagFORMATETC@@PAUtagSTGMEDIUM@@ABU_GUID@@@Z @ 932 NONAME
	?GetPropText@COlePropertyPage@@QAEHPBGPAE@Z @ 933 NONAME
	?GetPropText@COlePropertyPage@@QAEHPBGPAF@Z @ 934 NONAME
	?GetPropText@COlePropertyPage@@QAEHPBGPAH@Z @ 935 NONAME
	?GetPropText@COlePropertyPage@@QAEHPBGPAI@Z @ 936 NONAME
	?GetPropText@COlePropertyPage@@QAEHPBGPAJ@Z @ 937 NONAME
	?GetPropText@COlePropertyPage@@QAEHPBGPAK@Z @ 938 NONAME
	?GetPropText@COlePropertyPage@@QAEHPBGPAM@Z @ 939 NONAME
	?GetPropText@COlePropertyPage@@QAEHPBGPAN@Z @ 940 NONAME
	?GetPropText@COlePropertyPage@@QAEHPBGPAVCString@@@Z @ 941 NONAME
	?GetRange@CDateTimeCtrl@@QBEKPAVCOleDateTime@@0@Z @ 942 NONAME
	?GetRange@CDateTimeCtrl@@QBEKPAVCTime@@0@Z @ 943 NONAME
	?GetRange@CMonthCalCtrl@@QBEKPAU_SYSTEMTIME@@0@Z @ 944 NONAME
	?GetRange@CMonthCalCtrl@@QBEKPAVCOleDateTime@@0@Z @ 945 NONAME
	?GetRange@CMonthCalCtrl@@QBEKPAVCTime@@0@Z @ 946 NONAME
	?GetRawValue@CProperty@@QAEPAXXZ @ 947 NONAME
	?GetReadyState@COleControl@@QAEJXZ @ 948 NONAME
	?GetRect@XViewObject@COleControl@@UAAJKPAU_RECTL@@@Z @ 949 NONAME
	?GetRectInContainer@COleControl@@QAEHPAUtagRECT@@@Z @ 950 NONAME
	?GetRuntimeClass@CDateTimeCtrl@@UBEPAUCRuntimeClass@@XZ @ 951 NONAME
	?GetRuntimeClass@CMonthCalCtrl@@UBEPAUCRuntimeClass@@XZ @ 952 NONAME
	?GetRuntimeClass@COleControl@@UBEPAUCRuntimeClass@@XZ @ 953 NONAME
	?GetRuntimeClass@COleControlModule@@UBEPAUCRuntimeClass@@XZ @ 954 NONAME
	?GetRuntimeClass@COleDispatchException@@UBEPAUCRuntimeClass@@XZ @ 955 NONAME
	?GetRuntimeClass@COleException@@UBEPAUCRuntimeClass@@XZ @ 956 NONAME
	?GetRuntimeClass@COleObjectFactory@@UBEPAUCRuntimeClass@@XZ @ 957 NONAME
	?GetRuntimeClass@COlePropertyPage@@UBEPAUCRuntimeClass@@XZ @ 958 NONAME
	?GetRuntimeClass@COleStreamFile@@UBEPAUCRuntimeClass@@XZ @ 959 NONAME
	?GetRuntimeClass@CWindowlessDC@@UBEPAUCRuntimeClass@@XZ @ 960 NONAME
	?GetSecond@COleDateTime@@QBEHXZ @ 961 NONAME
	?GetSeconds@COleDateTimeSpan@@QBEJXZ @ 962 NONAME
	?GetSection@CPropertySet@@QAEPAVCPropertySection@@U_GUID@@@Z @ 963 NONAME
	?GetSectionName@CPropertySection@@QAEPBGXZ @ 964 NONAME
	?GetSelRange@CMonthCalCtrl@@QBEHAAVCOleDateTime@@0@Z @ 965 NONAME
	?GetSelRange@CMonthCalCtrl@@QBEHAAVCTime@@0@Z @ 966 NONAME
	?GetSelRange@CMonthCalCtrl@@QBEHPAU_SYSTEMTIME@@0@Z @ 967 NONAME
	?GetSize@CPropertySection@@QAEKXZ @ 968 NONAME
	?GetSizeMax@CBlobProperty@@UAAJPAT_ULARGE_INTEGER@@@Z @ 969 NONAME
	?GetSizeMax@CCeFont@@UAAJPAT_ULARGE_INTEGER@@@Z @ 970 NONAME
	?GetSizeMax@CCeFont@@W3AAJPAT_ULARGE_INTEGER@@@Z @ 971 NONAME
	?GetSizeMax@XPersistMemory@COleControl@@UAAJPAK@Z @ 972 NONAME
	?GetSizeMax@XPersistStreamInit@COleControl@@UAAJPAT_ULARGE_INTEGER@@@Z @ 973 NONAME
	?GetStackSize@CCmdTarget@@KAIPBEG@Z @ 974 NONAME
	?GetStandardProp@CCmdTarget@@IAEXPBUAFX_DISPMAP_ENTRY@@PAUtagVARIANT@@PAI@Z @ 975 NONAME
	?GetStartPosition@CConnectionPoint@@QBEPAU__POSITION@@XZ @ 976 NONAME
	?GetStatus@COleStreamFile@@QBEHAAUCFileStatus@@@Z @ 977 NONAME
	?GetStockTextMetrics@COleControl@@QAEXPAUtagTEXTMETRICW@@@Z @ 978 NONAME
	?GetStorageName@COleStreamFile@@UBE?BVCString@@XZ @ 979 NONAME
	?GetStream@COleStreamFile@@QBEPAUIStream@@XZ @ 980 NONAME
	?GetStyle@COleControlSite@@UBEKXZ @ 981 NONAME
	?GetText@COleControl@@QAEPAGXZ @ 982 NONAME
	?GetTime@CDateTimeCtrl@@QBEHAAVCOleDateTime@@@Z @ 983 NONAME
	?GetTime@CDateTimeCtrl@@QBEKAAVCTime@@@Z @ 984 NONAME
	?GetToday@CMonthCalCtrl@@QBEHAAVCOleDateTime@@@Z @ 985 NONAME
	?GetToday@CMonthCalCtrl@@QBEHAAVCTime@@@Z @ 986 NONAME
	?GetType@CProperty@@QAEKXZ @ 987 NONAME
	?GetTypeInfo@CCeFont@@UAAJIKPAPAUITypeInfo@@@Z @ 988 NONAME
	?GetTypeInfo@COleDispatchImpl@@UAAJIKPAPAUITypeInfo@@@Z @ 989 NONAME
	?GetTypeInfo@XAmbientProps@COleControlSite@@UAAJIKPAPAUITypeInfo@@@Z @ 990 NONAME
	?GetTypeInfo@XEventSink@COleControlSite@@UAAJIKPAPAUITypeInfo@@@Z @ 991 NONAME
	?GetTypeInfoCount@CCeFont@@UAAJPAI@Z @ 992 NONAME
	?GetTypeInfoCount@COleDispatchImpl@@UAAJPAI@Z @ 993 NONAME
	?GetTypeInfoCount@XAmbientProps@COleControlSite@@UAAJPAI@Z @ 994 NONAME
	?GetTypeInfoCount@XEventSink@COleControlSite@@UAAJPAI@Z @ 995 NONAME
	?GetTypeInfoOfGuid@CCmdTarget@@QAEJKABU_GUID@@PAPAUITypeInfo@@@Z @ 996 NONAME
	?GetUBound@COleSafeArray@@QAEXKPAJ@Z @ 997 NONAME
	?GetUserClassID@XOleObject@COleControl@@UAAJPAU_GUID@@@Z @ 998 NONAME
	?GetUserType@COleControl@@IAEXPAG@Z @ 999 NONAME
	?GetUserType@XOleObject@COleControl@@UAAJKPAPAG@Z @ 1000 NONAME
	?GetViewStatus@XViewObject@COleControl@@UAAJPAK@Z @ 1002 NONAME
	?GetWindow@XOleInPlaceActiveObject@COleControl@@UAAJPAPAUHWND__@@@Z @ 1003 NONAME
	?GetWindow@XOleInPlaceObject@COleControl@@UAAJPAPAUHWND__@@@Z @ 1004 NONAME
	?GetWindow@XOleIPFrame@COleControlContainer@@UAAJPAPAUHWND__@@@Z @ 1005 NONAME
	?GetWindow@XOleIPSite@COleControlSite@@UAAJPAPAUHWND__@@@Z @ 1006 NONAME
	?GetWindowContext@XOleIPSite@COleControlSite@@UAAJPAPAUIOleInPlaceFrame@@PAPAUIOleInPlaceUIWindow@@PAUtagRECT@@2PAUtagOIFI@@@Z @ 1007 NONAME
	?GetWindowlessDropTarget@COleControl@@UAEPAUIDropTarget@@XZ @ 1008 NONAME
	?GetWindowTextLengthW@COleControlSite@@UBEHXZ @ 1009 NONAME
	?GetWindowTextW@COleControlSite@@UBEHPAGH@Z @ 1010 NONAME
	?GetWindowTextW@COleControlSite@@UBEXAAVCString@@@Z @ 1011 NONAME
	?GetYear@COleDateTime@@QBEHXZ @ 1012 NONAME
	?HandsOffStorage@XPersistStorage@COleControl@@UAAJXZ @ 1013 NONAME
	?Help@XPropertyPage@COlePropertyPage@@UAAJPBG@Z @ 1015 NONAME
	?IgnoreApply@COlePropertyPage@@QAEXI@Z @ 1016 NONAME
	?IgnoreWindowMessage@COleControl@@IAEHIIJPAJ@Z @ 1017 NONAME
	?InitControlContainer@CWnd@@IAEHXZ @ 1018 NONAME
	?InitFontObject@CCeFont@@SAJXZ @ 1019 NONAME
	?InitFromData@XOleObject@COleControl@@UAAJPAUIDataObject@@HK@Z @ 1020 NONAME
	?InitializeFont@CFontHolder@@QAEXPBUtagFONTDESC@@PAUIDispatch@@@Z @ 1021 NONAME
	?InitializeIIDs@COleControl@@QAEXPBU_GUID@@0@Z @ 1022 NONAME
	?InitInstance@COleControlModule@@UAEHXZ @ 1023 NONAME
	?InitNew@CCeFont@@UAAJXZ @ 1024 NONAME
	?InitNew@CCeFont@@W3AAJXZ @ 1025 NONAME
	?InitNew@XPersistMemory@COleControl@@UAAJXZ @ 1026 NONAME
	?InitNew@XPersistPropertyBag@COleControl@@UAAJXZ @ 1027 NONAME
	?InitNew@XPersistStorage@COleControl@@UAAJPAUIStorage@@@Z @ 1028 NONAME
	?InitNew@XPersistStreamInit@COleControl@@UAAJXZ @ 1029 NONAME
	?InitStockEventMask@COleControl@@IAEXXZ @ 1030 NONAME
	?InitStockPropMask@COleControl@@IAEXXZ @ 1031 NONAME
	?InPlaceDeactivate@XOleInPlaceObject@COleControl@@UAAJXZ @ 1032 NONAME
	?InsertMenus@XOleIPFrame@COleControlContainer@@UAAJPAUHMENU__@@PAUtagOleMenuGroupWidths@@@Z @ 1033 NONAME
	?InternalAddRef@CUnknown@@UAAKXZ @ 1034 NONAME
	?InternalGetFont@COleControl@@QAEAAVCFontHolder@@XZ @ 1035 NONAME
	?InternalGetText@COleControl@@QAEABVCString@@XZ @ 1036 NONAME
	?InternalQueryInterface@CCeFont@@UAAJABU_GUID@@PAPAX@Z @ 1037 NONAME
	?InternalQueryInterface@CCmdTarget@@QAEKPBXPAPAX@Z @ 1038 NONAME
	?InternalQueryInterface@CUnknown@@UAAJABU_GUID@@PAPAX@Z @ 1039 NONAME
	?InternalRelease@CCmdTarget@@QAEKXZ @ 1040 NONAME
	?InternalRelease@CUnknown@@UAAKXZ @ 1041 NONAME
	?InvalidateControl@COleControl@@QAEXPBUtagRECT@@H@Z @ 1042 NONAME
	?InvalidateRgn@COleControl@@QAEXPAVCRgn@@H@Z @ 1043 NONAME
	?Invoke@CCeFont@@UAAJJABU_GUID@@KGPAUtagDISPPARAMS@@PAUtagVARIANT@@PAUtagEXCEPINFO@@PAI@Z @ 1044 NONAME
	?Invoke@COleDispatchImpl@@UAAJJABU_GUID@@KGPAUtagDISPPARAMS@@PAUtagVARIANT@@PAUtagEXCEPINFO@@PAI@Z @ 1045 NONAME
	?Invoke@XAmbientProps@COleControlSite@@UAAJJABU_GUID@@KGPAUtagDISPPARAMS@@PAUtagVARIANT@@PAUtagEXCEPINFO@@PAI@Z @ 1046 NONAME
	?Invoke@XEventSink@COleControlSite@@UAAJJABU_GUID@@KGPAUtagDISPPARAMS@@PAUtagVARIANT@@PAUtagEXCEPINFO@@PAI@Z @ 1047 NONAME
	?InvokeHelper@COleControlSite@@UAAXJGGPAXPBEZZ @ 1048 NONAME
	?InvokeHelper@COleDispatchDriver@@QAAXJGGPAXPBEZZ @ 1049 NONAME
	?InvokeHelperV@COleControlSite@@UAEXJGGPAXPBEPAD@Z @ 1050 NONAME
	?InvokeHelperV@COleDispatchDriver@@QAEXJGGPAXPBEPAD@Z @ 1051 NONAME
	?IsDefaultButton@COleControlSite@@QAEHXZ @ 1052 NONAME
	?IsDialogMessageW@COccManager@@UAEHPAVCWnd@@PAUtagMSG@@@Z @ 1053 NONAME
	?IsDirty@CBlobProperty@@UAAJXZ @ 1054 NONAME
	?IsDirty@CCeFont@@UAAJXZ @ 1055 NONAME
	?IsDirty@CCeFont@@W3AAJXZ @ 1056 NONAME
	?IsDirty@XPersistMemory@COleControl@@UAAJXZ @ 1057 NONAME
	?IsDirty@XPersistStorage@COleControl@@UAAJXZ @ 1058 NONAME
	?IsDirty@XPersistStreamInit@COleControl@@UAAJXZ @ 1059 NONAME
	?IsDlgButtonChecked@COleControlContainer@@UBEIH@Z @ 1060 NONAME
	?IsEqual@CCeFont@@UAAJPAUIFont@@@Z @ 1061 NONAME
	?IsInvokeAllowed@COleControl@@MAEHJ@Z @ 1062 NONAME
	?IsLabelControl@COccManager@@SAHPAVCWnd@@@Z @ 1063 NONAME
	?IsLicenseValid@COleObjectFactory@@QAEHXZ @ 1064 NONAME
	?IsMatchingMnemonic@COccManager@@SAHPAVCWnd@@PAUtagMSG@@@Z @ 1065 NONAME
	?IsMatchingMnemonic@COleControlSite@@QAEHPAUtagMSG@@@Z @ 1066 NONAME
	?IsModified@COleControl@@QAEHXZ @ 1067 NONAME
	?IsModified@COlePropertyPage@@QAEHXZ @ 1068 NONAME
	?IsPageDirty@XPropertyPage@COlePropertyPage@@UAAJXZ @ 1069 NONAME
	?IsRegistered@COleObjectFactory@@UBEHXZ @ 1070 NONAME
	?IsResultExpected@CCmdTarget@@QAEHXZ @ 1071 NONAME
	?IsSubclassedControl@COleControl@@UAEHXZ @ 1072 NONAME
	?IsUpToDate@XOleObject@COleControl@@UAAJXZ @ 1073 NONAME
	?IsWindowEnabled@COleControlSite@@UBEHXZ @ 1074 NONAME
	?KeyDown@COleControl@@IAEXPAG@Z @ 1075 NONAME
	?KeyUp@COleControl@@IAEXPAG@Z @ 1076 NONAME
	?Load@CBlobProperty@@UAAJPAUIStream@@@Z @ 1077 NONAME
	?Load@CCeFont@@UAAJPAUIPropertyBag@@PAUIErrorLog@@@Z @ 1078 NONAME
	?Load@CCeFont@@UAAJPAUIStream@@@Z @ 1079 NONAME
	?Load@CCeFont@@W3AAJPAUIStream@@@Z @ 1080 NONAME
	?Load@CStreamImp@@QAAJPAX@Z @ 1081 NONAME
	?Load@XPersistMemory@COleControl@@UAAJPAXK@Z @ 1082 NONAME
	?Load@XPersistPropertyBag@COleControl@@UAAJPAUIPropertyBag@@PAUIErrorLog@@@Z @ 1083 NONAME
	?Load@XPersistStorage@COleControl@@UAAJPAUIStorage@@@Z @ 1084 NONAME
	?Load@XPersistStreamInit@COleControl@@UAAJPAUIStream@@@Z @ 1085 NONAME
	?LoadState@COleControl@@IAEJPAUIStream@@@Z @ 1086 NONAME
	?Lock@COleSafeArray@@QAEXXZ @ 1087 NONAME
	?Lock@CTypeLibCache@@QAEXXZ @ 1088 NONAME
	?Lock@CUnknown@@UAEXXZ @ 1089 NONAME
	?LockContainer@XOleContainer@COleControlContainer@@UAAJH@Z @ 1090 NONAME
	?LockInPlaceActive@COleControl@@QAEHH@Z @ 1091 NONAME
	?LockInPlaceActive@XOleControlSite@COleControlSite@@UAAJH@Z @ 1092 NONAME
	?LockRange@COleStreamFile@@UAEXKK@Z @ 1093 NONAME
	?LockRegion@CStreamImp@@UAAJT_ULARGE_INTEGER@@0K@Z @ 1094 NONAME
	?LockServer@XClassFactory@COleObjectFactory@@UAAJH@Z @ 1095 NONAME
	?Lookup@COleDataSource@@IBEPAUAFX_DATACACHE_ENTRY@@PAUtagFORMATETC@@W4tagDATADIR@@@Z @ 1096 NONAME
	?Lookup@CTypeLibCache@@QAEHKPAPAUITypeLib@@@Z @ 1097 NONAME
	?LookupTypeInfo@CTypeLibCache@@QAEHKABU_GUID@@PAPAUITypeInfo@@@Z @ 1098 NONAME
	?MapPropertyToPage@XPerPropertyBrowsing@COleControl@@UAAJJPAU_GUID@@@Z @ 1099 NONAME
	?MemberIDFromName@CCmdTarget@@KAJPBUAFX_DISPMAP@@PBG@Z @ 1100 NONAME
	?MessageBoxW@COlePropertyPage@@QAEHPBG0I@Z @ 1101 NONAME
	?ModifyStyle@COleControlSite@@UAEHKKI@Z @ 1102 NONAME
	?ModifyStyleEx@COleControlSite@@UAEHKKI@Z @ 1103 NONAME
	?Move@XPropertyPage@COlePropertyPage@@UAAJPBUtagRECT@@@Z @ 1104 NONAME
	?MoveWindow@COleControlSite@@UAEXHHHHH@Z @ 1105 NONAME
	?NewFcr@CCeFont@@QAEJPAH@Z @ 1106 NONAME
	?Next@XEnumVOID@CEnumArray@@UAAJKPAXPAK@Z @ 1107 NONAME
	?OnActivate@CControlFrameWnd@@IAEXIPAVCWnd@@H@Z @ 1108 NONAME
	?OnActivateInPlace@COleControl@@MAEJHPAUtagMSG@@@Z @ 1109 NONAME
	?OnAdvise@CConnectionPoint@@UAEXH@Z @ 1110 NONAME
	?OnAdvise@XEventConnPt@COleControl@@UAEXH@Z @ 1111 NONAME
	?OnAmbientPropertyChange@COleControl@@UAEXJ@Z @ 1112 NONAME
	?OnAmbientPropertyChange@XOleControl@COleControl@@UAAJJ@Z @ 1113 NONAME
	?OnAppearanceChanged@COleControl@@UAEXXZ @ 1114 NONAME
	?OnBackColorChanged@COleControl@@UAEXXZ @ 1115 NONAME
	?OnBorderStyleChanged@COleControl@@UAEXXZ @ 1116 NONAME
	?OnButtonDblClk@COleControl@@IAEXGIVCPoint@@@Z @ 1117 NONAME
	?OnButtonDown@COleControl@@IAEXGIVCPoint@@@Z @ 1118 NONAME
	?OnButtonUp@COleControl@@IAEXGIVCPoint@@@Z @ 1119 NONAME
	?OnCancelMode@COleControl@@IAEXXZ @ 1120 NONAME
	?OnChanged@XFontNotification@COleControl@@UAAJJ@Z @ 1121 NONAME
	?OnChanged@XPropertyNotifySink@COleControlSite@@UAAJJ@Z @ 1122 NONAME
	?OnChanged@XPropNotifySink@COlePropertyPage@@UAAJJ@Z @ 1123 NONAME
	?OnChar@COleControl@@IAEXIII@Z @ 1124 NONAME
	?OnClick@COleControl@@UAEXG@Z @ 1125 NONAME
	?OnClone@CEnumArray@@MAEPAV1@XZ @ 1126 NONAME
	?OnClone@CEnumConnections@@MAEPAVCEnumArray@@XZ @ 1127 NONAME
	?OnClose@CControlFrameWnd@@IAEXXZ @ 1128 NONAME
	?OnClose@COleControl@@UAEXK@Z @ 1129 NONAME
	?OnCommand@COlePropertyPage@@MAEHIJ@Z @ 1130 NONAME
	?OnControlInfoChanged@XOleControlSite@COleControlSite@@UAAJXZ @ 1131 NONAME
	?OnCreate@COleControl@@IAEHPAUtagCREATESTRUCTW@@@Z @ 1132 NONAME
	?OnCreateAggregates@COleControl@@MAEHXZ @ 1133 NONAME
	?OnCreateObject@COleObjectFactory@@MAEPAVCCmdTarget@@XZ @ 1134 NONAME
	?OnCtlColor@COlePropertyPage@@IAEPAUHBRUSH__@@PAVCDC@@PAVCWnd@@I@Z @ 1135 NONAME
	?OnDestroy@COleControl@@IAEXXZ @ 1136 NONAME
	?OnDocWindowActivate@XOleInPlaceActiveObject@COleControl@@UAAJH@Z @ 1137 NONAME
	?OnDoVerb@COleControl@@UAEHJPAUtagMSG@@PAUHWND__@@PBUtagRECT@@@Z @ 1138 NONAME
	?OnDraw@COleControl@@UAEXPAVCDC@@ABVCRect@@1@Z @ 1139 NONAME
	?OnDrawMetafile@COleControl@@UAEXPAVCDC@@ABVCRect@@@Z @ 1140 NONAME
	?OnEdit@COleControl@@UAEHPAUtagMSG@@PAUHWND__@@PBUtagRECT@@@Z @ 1141 NONAME
	?OnEditProperty@COlePropertyPage@@UAEHJ@Z @ 1142 NONAME
	?OnEnabledChanged@COleControl@@UAEXXZ @ 1143 NONAME
	?OnEnterIdle@COleControl@@IAEXIPAVCWnd@@@Z @ 1144 NONAME
	?OnEnumVerbs@COleControl@@UAEHPAPAUIEnumOLEVERB@@@Z @ 1145 NONAME
	?OnEraseBkgnd@COleControl@@IAEHPAVCDC@@@Z @ 1146 NONAME
	?OnEvent@CCmdTarget@@QAEHIPAUAFX_EVENT@@PAUAFX_CMDHANDLERINFO@@@Z @ 1147 NONAME
	?OnEvent@COccManager@@UAEHPAVCCmdTarget@@IPAUAFX_EVENT@@PAUAFX_CMDHANDLERINFO@@@Z @ 1148 NONAME
	?OnEvent@COleControlSite@@IAEHPAUAFX_EVENT@@@Z @ 1149 NONAME
	?OnEventAdvise@COleControl@@UAEXH@Z @ 1150 NONAME
	?OnFinalRelease@COleControl@@MAEXXZ @ 1151 NONAME
	?OnFinalRelease@COlePropertyPage@@MAEXXZ @ 1152 NONAME
	?OnFocus@XOleControlSite@COleControlSite@@UAAJH@Z @ 1153 NONAME
	?OnFontChanged@COleControl@@UAEXXZ @ 1154 NONAME
	?OnForeColorChanged@COleControl@@UAEXXZ @ 1155 NONAME
	?OnFrameClose@COleControl@@MAEXXZ @ 1156 NONAME
	?OnFrameWindowActivate@XOleInPlaceActiveObject@COleControl@@UAAJH@Z @ 1157 NONAME
	?OnFreezeEvents@COleControl@@UAEXH@Z @ 1158 NONAME
	?OnGetColorSet@COleControl@@UAEHPAUtagDVTARGETDEVICE@@PAUHDC__@@PAPAUtagLOGPALETTE@@@Z @ 1159 NONAME
	?OnGetControlInfo@COleControl@@UAEXPAUtagCONTROLINFO@@@Z @ 1160 NONAME
	?OnGetDisplayString@COleControl@@UAEHJAAVCString@@@Z @ 1161 NONAME
	?OnGetDlgCode@COleControl@@IAEIXZ @ 1162 NONAME
	?OnGetNaturalExtent@COleControl@@UAEHKJPAUtagDVTARGETDEVICE@@PAUHDC__@@PAUtagExtentInfo@@PAUtagSIZE@@@Z @ 1163 NONAME
	?OnGetPredefinedStrings@COleControl@@UAEHJPAVCStringArray@@PAVCDWordArray@@@Z @ 1164 NONAME
	?OnGetPredefinedValue@COleControl@@UAEHJKPAUtagVARIANT@@@Z @ 1165 NONAME
	?OnGetViewExtent@COleControl@@UAEHKJPAUtagDVTARGETDEVICE@@PAUtagSIZE@@@Z @ 1166 NONAME
	?OnGetViewRect@COleControl@@UAEHKPAU_RECTL@@@Z @ 1167 NONAME
	?OnGetViewStatus@COleControl@@UAEKXZ @ 1168 NONAME
	?OnHelp@COlePropertyPage@@UAEHPBG@Z @ 1169 NONAME
	?OnHide@COleControl@@MAEJXZ @ 1170 NONAME
	?OnInactiveMouseMove@COleControl@@UAEXPBUtagRECT@@JJK@Z @ 1171 NONAME
	?OnInactiveMouseMove@XPointerInactive@COleControl@@UAAJPBUtagRECT@@JJK@Z @ 1172 NONAME
	?OnInactiveSetCursor@COleControl@@UAEHPBUtagRECT@@JJKH@Z @ 1173 NONAME
	?OnInactiveSetCursor@XPointerInactive@COleControl@@UAAJPBUtagRECT@@JJKH@Z @ 1174 NONAME
	?OnInitDialog@COlePropertyPage@@UAEHXZ @ 1175 NONAME
	?OnInitMenuPopup@COleControl@@IAEXPAVCMenu@@IH@Z @ 1176 NONAME
	?OnInPlaceActivate@XOleIPSite@COleControlSite@@UAAJXZ @ 1177 NONAME
	?OnInPlaceDeactivate@XOleIPSite@COleControlSite@@UAAJXZ @ 1178 NONAME
	?OnKeyDown@COleControl@@IAEXIII@Z @ 1179 NONAME
	?OnKeyDownEvent@COleControl@@UAEXGG@Z @ 1180 NONAME
	?OnKeyPressEvent@COleControl@@UAEXG@Z @ 1181 NONAME
	?OnKeyUp@COleControl@@IAEXIII@Z @ 1182 NONAME
	?OnKeyUpEvent@COleControl@@UAEXGG@Z @ 1183 NONAME
	?OnKillFocus@COleControl@@IAEXPAVCWnd@@@Z @ 1184 NONAME
	?OnLButtonDblClk@COleControl@@IAEXIVCPoint@@@Z @ 1185 NONAME
	?OnLButtonDown@COleControl@@IAEXIVCPoint@@@Z @ 1186 NONAME
	?OnLButtonUp@COleControl@@IAEXIVCPoint@@@Z @ 1187 NONAME
	?OnMapPropertyToPage@COleControl@@UAEHJPAU_GUID@@PAH@Z @ 1188 NONAME
	?OnMButtonDblClk@COleControl@@IAEXIVCPoint@@@Z @ 1189 NONAME
	?OnMButtonDown@COleControl@@IAEXIVCPoint@@@Z @ 1190 NONAME
	?OnMButtonUp@COleControl@@IAEXIVCPoint@@@Z @ 1191 NONAME
	?OnMenuSelect@COleControl@@IAEXIIPAUHMENU__@@@Z @ 1192 NONAME
	?OnMnemonic@COleControl@@UAEXPAUtagMSG@@@Z @ 1193 NONAME
	?OnMnemonic@XOleControl@COleControl@@UAAJPAUtagMSG@@@Z @ 1194 NONAME
	?OnMouseMove@COleControl@@IAEXIVCPoint@@@Z @ 1195 NONAME
	?OnMove@COleControl@@IAEXHH@Z @ 1196 NONAME
	?OnNext@CEnumArray@@MAEHPAX@Z @ 1197 NONAME
	?OnNext@CEnumConnections@@MAEHPAX@Z @ 1198 NONAME
	?OnNext@CEnumConnPoints@@MAEHPAX@Z @ 1199 NONAME
	?OnNext@CEnumOleVerb@@MAEHPAX@Z @ 1200 NONAME
	?OnNext@CEnumUnknown@@MAEHPAX@Z @ 1201 NONAME
	?OnObjectsChanged@COlePropertyPage@@UAEXXZ @ 1202 NONAME
	?OnOcmCtlColorBtn@COleControl@@IAEJIJ@Z @ 1203 NONAME
	?OnOcmCtlColorDlg@COleControl@@IAEJIJ@Z @ 1204 NONAME
	?OnOcmCtlColorEdit@COleControl@@IAEJIJ@Z @ 1205 NONAME
	?OnOcmCtlColorListBox@COleControl@@IAEJIJ@Z @ 1206 NONAME
	?OnOcmCtlColorMsgBox@COleControl@@IAEJIJ@Z @ 1207 NONAME
	?OnOcmCtlColorScrollBar@COleControl@@IAEJIJ@Z @ 1208 NONAME
	?OnOcmCtlColorStatic@COleControl@@IAEJIJ@Z @ 1209 NONAME
	?OnOpen@COleControl@@MAEJHPAUtagMSG@@@Z @ 1210 NONAME
	?OnPaint@COleControl@@IAEXPAVCDC@@@Z @ 1211 NONAME
	?OnPosRectChange@XOleIPSite@COleControlSite@@UAAJPBUtagRECT@@@Z @ 1212 NONAME
	?OnProperties@COleControl@@UAEHPAUtagMSG@@PAUHWND__@@PBUtagRECT@@@Z @ 1213 NONAME
	?OnQueryHitPoint@COleControl@@UAEHKPBUtagRECT@@UtagPOINT@@JPAK@Z @ 1214 NONAME
	?OnQueryHitRect@COleControl@@UAEHKPBUtagRECT@@0JPAK@Z @ 1215 NONAME
	?OnRButtonDblClk@COleControl@@IAEXIVCPoint@@@Z @ 1216 NONAME
	?OnRButtonDown@COleControl@@IAEXIVCPoint@@@Z @ 1217 NONAME
	?OnRButtonUp@COleControl@@IAEXIVCPoint@@@Z @ 1218 NONAME
	?OnReflectorDestroyed@COleControl@@MAEXXZ @ 1219 NONAME
	?OnRenderData@CControlDataSource@COleControl@@MAEHPAUtagFORMATETC@@PAUtagSTGMEDIUM@@@Z @ 1220 NONAME
	?OnRenderData@COleControl@@UAEHPAUtagFORMATETC@@PAUtagSTGMEDIUM@@@Z @ 1221 NONAME
	?OnRenderData@COleDataSource@@UAEHPAUtagFORMATETC@@PAUtagSTGMEDIUM@@@Z @ 1222 NONAME
	?OnRenderFileData@CControlDataSource@COleControl@@MAEHPAUtagFORMATETC@@PAVCFile@@@Z @ 1223 NONAME
	?OnRenderFileData@COleControl@@UAEHPAUtagFORMATETC@@PAVCFile@@@Z @ 1224 NONAME
	?OnRenderFileData@COleDataSource@@UAEHPAUtagFORMATETC@@PAVCFile@@@Z @ 1225 NONAME
	?OnRenderGlobalData@CControlDataSource@COleControl@@MAEHPAUtagFORMATETC@@PAPAX@Z @ 1226 NONAME
	?OnRenderGlobalData@COleControl@@UAEHPAUtagFORMATETC@@PAPAX@Z @ 1227 NONAME
	?OnRenderGlobalData@COleDataSource@@UAEHPAUtagFORMATETC@@PAPAX@Z @ 1228 NONAME
	?OnRequestEdit@XFontNotification@COleControl@@UAAJJ@Z @ 1229 NONAME
	?OnRequestEdit@XPropertyNotifySink@COleControlSite@@UAAJJ@Z @ 1230 NONAME
	?OnRequestEdit@XPropNotifySink@COlePropertyPage@@UAAJJ@Z @ 1231 NONAME
	?OnReset@CEnumArray@@MAEXXZ @ 1232 NONAME
	?OnResetState@COleControl@@UAEXXZ @ 1233 NONAME
	?OnSetClientSite@COleControl@@UAEXXZ @ 1234 NONAME
	?OnSetCursor@COleControl@@IAEHPAVCWnd@@II@Z @ 1235 NONAME
	?OnSetData@CControlDataSource@COleControl@@MAEHPAUtagFORMATETC@@PAUtagSTGMEDIUM@@H@Z @ 1236 NONAME
	?OnSetData@COleControl@@UAEHPAUtagFORMATETC@@PAUtagSTGMEDIUM@@H@Z @ 1237 NONAME
	?OnSetData@COleDataSource@@UAEHPAUtagFORMATETC@@PAUtagSTGMEDIUM@@H@Z @ 1238 NONAME
	?OnSetExtent@COleControl@@UAEHPAUtagSIZE@@@Z @ 1239 NONAME
	?OnSetFocus@COleControl@@IAEXPAVCWnd@@@Z @ 1240 NONAME
	?OnSetMessageString@COleControl@@IAEJIJ@Z @ 1241 NONAME
	?OnSetObjectRects@COleControl@@UAEHPBUtagRECT@@0@Z @ 1242 NONAME
	?OnSetPageSite@COlePropertyPage@@UAEXXZ @ 1243 NONAME
	?OnSetText@COleControl@@IAEJIJ@Z @ 1244 NONAME
	?OnShowWindow@COleControl@@IAEXHI@Z @ 1245 NONAME
	?OnShowWindow@XOleClientSite@COleControlSite@@UAAJH@Z @ 1246 NONAME
	?OnSize@COleControl@@IAEXIHH@Z @ 1247 NONAME
	?OnSkip@CEnumArray@@MAEHXZ @ 1248 NONAME
	?OnSysKeyDown@COleControl@@IAEXIII@Z @ 1249 NONAME
	?OnSysKeyUp@COleControl@@IAEXIII@Z @ 1250 NONAME
	?OnTextChanged@COleControl@@UAEXXZ @ 1251 NONAME
	?OnUIActivate@COleControlContainer@@UAEXPAVCOleControlSite@@@Z @ 1252 NONAME
	?OnUIActivate@XOleIPSite@COleControlSite@@UAAJXZ @ 1253 NONAME
	?OnUIDeactivate@COleControlContainer@@UAEXPAVCOleControlSite@@@Z @ 1254 NONAME
	?OnUIDeactivate@XOleIPSite@COleControlSite@@UAAJH@Z @ 1255 NONAME
	?OnWindowlessMessage@COleControl@@UAEHIIJPAJ@Z @ 1256 NONAME
	?OnWindowMessage@XOleInPlaceObject@COleControl@@UAAJIIJPAJ@Z @ 1257 NONAME
	?OpenStream@COleStreamFile@@QAEHPAUIStorage@@PBGKPAVCFileException@@@Z @ 1258 NONAME
	?ParentToClient@COleControl@@UBEIPBUtagRECT@@PAUtagPOINT@@H@Z @ 1259 NONAME
	?ParseCurrency@COleCurrency@@QAEHPBGKK@Z @ 1260 NONAME
	?ParseDateTime@COleDateTime@@QAEHPBGKK@Z @ 1261 NONAME
	?ParseDisplayName@XOleContainer@COleControlContainer@@UAAJPAUIBindCtx@@PAGPAKPAPAUIMoniker@@@Z @ 1262 NONAME
	?PostCreateDialog@COccManager@@UAEXPAU_AFX_OCC_DIALOG_INFO@@@Z @ 1263 NONAME
	?PostModalDialog@COleControl@@QAEXPAUHWND__@@@Z @ 1264 NONAME
	?PostNcDestroy@CControlFrameWnd@@MAEXXZ @ 1265 NONAME
	?PostNcDestroy@CReflectorWnd@@MAEXXZ @ 1266 NONAME
	?PreCreateDialog@COccManager@@UAEPBUDLGTEMPLATE@@PAU_AFX_OCC_DIALOG_INFO@@PBU2@@Z @ 1267 NONAME
	?PreCreateWindow@CControlFrameWnd@@UAEHAAUtagCREATESTRUCTW@@@Z @ 1268 NONAME
	?PreModalDialog@COleControl@@QAEXPAUHWND__@@@Z @ 1269 NONAME
	?PrepareOleCtrl@CDataExchange@@QAEPAVCWnd@@H@Z @ 1270 NONAME
	?PreTranslateMessage@COlePropertyPage@@MAEHPAUtagMSG@@@Z @ 1271 NONAME
	?Process@COleDispatchException@@SAXPAUtagEXCEPINFO@@PBVCException@@@Z @ 1272 NONAME
	?Process@COleException@@SAJPBVCException@@@Z @ 1273 NONAME
	?PtrOfIndex@COleSafeArray@@QAEXPAJPAPAX@Z @ 1274 NONAME
	?PushStackArgs@CCmdTarget@@IAEJPAEPBEPAXGPAUtagDISPPARAMS@@PAIPAUtagVARIANT@@@Z @ 1275 NONAME
	?put_Bold@CCeFont@@UAAJH@Z @ 1276 NONAME
	?put_Charset@CCeFont@@UAAJF@Z @ 1277 NONAME
	?put_Italic@CCeFont@@UAAJH@Z @ 1278 NONAME
	?put_Name@CCeFont@@UAAJPAG@Z @ 1279 NONAME
	?put_Size@CCeFont@@UAAJTtagCY@@@Z @ 1280 NONAME
	?put_Strikethrough@CCeFont@@UAAJH@Z @ 1281 NONAME
	?put_Underline@CCeFont@@UAAJH@Z @ 1282 NONAME
	?put_Weight@CCeFont@@UAAJF@Z @ 1283 NONAME
	?PutElement@COleSafeArray@@QAEXPAJPAX@Z @ 1284 NONAME
	?PX_Blob@@YAHPAVCPropExchange@@PBGAAPAXPAX@Z @ 1285 NONAME
	?PX_Bool@@YAHPAVCPropExchange@@PBGAAH@Z @ 1286 NONAME
	?PX_Bool@@YAHPAVCPropExchange@@PBGAAHH@Z @ 1287 NONAME
	?PX_Color@@YAHPAVCPropExchange@@PBGAAK@Z @ 1288 NONAME
	?PX_Color@@YAHPAVCPropExchange@@PBGAAKK@Z @ 1289 NONAME
	?PX_Currency@@YAHPAVCPropExchange@@PBGAATtagCY@@@Z @ 1290 NONAME
	?PX_Currency@@YAHPAVCPropExchange@@PBGAATtagCY@@T2@@Z @ 1291 NONAME
	?PX_Double@@YAHPAVCPropExchange@@PBGAAN@Z @ 1292 NONAME
	?PX_Double@@YAHPAVCPropExchange@@PBGAANN@Z @ 1293 NONAME
	?PX_Float@@YAHPAVCPropExchange@@PBGAAM@Z @ 1294 NONAME
	?PX_Float@@YAHPAVCPropExchange@@PBGAAMM@Z @ 1295 NONAME
	?PX_Font@@YAHPAVCPropExchange@@PBGAAVCFontHolder@@PBUtagFONTDESC@@PAUIFontDisp@@@Z @ 1296 NONAME
	?PX_IUnknown@@YAHPAVCPropExchange@@PBGAAPAUIUnknown@@ABU_GUID@@PAU2@@Z @ 1297 NONAME
	?PX_Long@@YAHPAVCPropExchange@@PBGAAJ@Z @ 1298 NONAME
	?PX_Long@@YAHPAVCPropExchange@@PBGAAJJ@Z @ 1299 NONAME
	?PX_Picture@@YAHPAVCPropExchange@@PBGAAVCPictureHolder@@@Z @ 1300 NONAME
	?PX_Picture@@YAHPAVCPropExchange@@PBGAAVCPictureHolder@@2@Z @ 1301 NONAME
	?PX_Short@@YAHPAVCPropExchange@@PBGAAF@Z @ 1302 NONAME
	?PX_Short@@YAHPAVCPropExchange@@PBGAAFF@Z @ 1303 NONAME
	?PX_String@@YAHPAVCPropExchange@@PBGAAVCString@@@Z @ 1304 NONAME
	?PX_String@@YAHPAVCPropExchange@@PBGAAVCString@@1@Z @ 1305 NONAME
	?PX_String@@YAHPAVCPropExchange@@PBGAAVCString@@ABV2@@Z @ 1306 NONAME
	?PX_ULong@@YAHPAVCPropExchange@@PBGAAK@Z @ 1307 NONAME
	?PX_ULong@@YAHPAVCPropExchange@@PBGAAKK@Z @ 1308 NONAME
	?PX_UShort@@YAHPAVCPropExchange@@PBGAAG@Z @ 1309 NONAME
	?PX_UShort@@YAHPAVCPropExchange@@PBGAAGG@Z @ 1310 NONAME
	?PX_VBXFontConvert@@YAHPAVCPropExchange@@AAVCFontHolder@@@Z @ 1311 NONAME
	?QueryAggregates@CCmdTarget@@QAEPAUIUnknown@@PBX@Z @ 1312 NONAME
	?QueryFontInfo@CCeFont@@QAEJPAUHFONT__@@PAUtagTEXTMETRICW@@QAG@Z @ 1313 NONAME
	?QueryGetData@XDataObject@COleDataSource@@UAAJPAUtagFORMATETC@@@Z @ 1314 NONAME
	?QueryHitPoint@XViewObject@COleControl@@UAAJKPBUtagRECT@@UtagPOINT@@JPAK@Z @ 1315 NONAME
	?QueryHitRect@XViewObject@COleControl@@UAAJKPBUtagRECT@@0JPAK@Z @ 1316 NONAME
	?QueryInterface@CBlobProperty@@UAAJABU_GUID@@PAPAX@Z @ 1317 NONAME
	?QueryInterface@CCeFont@@UAAJABU_GUID@@PAPAX@Z @ 1318 NONAME
	?QueryInterface@CCeFont@@W3AAJABU_GUID@@PAPAX@Z @ 1319 NONAME
	?QueryInterface@CCeFont@@W7AAJABU_GUID@@PAPAX@Z @ 1320 NONAME
	?QueryInterface@CCeFont@@WBA@AAJABU_GUID@@PAPAX@Z @ 1321 NONAME
	?QueryInterface@CCeFont@@WM@AAJABU_GUID@@PAPAX@Z @ 1322 NONAME
	?QueryInterface@CInnerUnknown@@UAAJABU_GUID@@PAPAX@Z @ 1323 NONAME
	?QueryInterface@COleConnPtContainer@@UAAJABU_GUID@@PAPAX@Z @ 1324 NONAME
	?QueryInterface@COleDispatchImpl@@UAAJABU_GUID@@PAPAX@Z @ 1325 NONAME
	?QueryInterface@CStreamImp@@UAAJABU_GUID@@PAPAX@Z @ 1326 NONAME
	?QueryInterface@XAmbientProps@COleControlSite@@UAAJABU_GUID@@PAPAX@Z @ 1327 NONAME
	?QueryInterface@XClassFactory@COleObjectFactory@@UAAJABU_GUID@@PAPAX@Z @ 1328 NONAME
	?QueryInterface@XConnPt@CConnectionPoint@@UAAJABU_GUID@@PAPAX@Z @ 1329 NONAME
	?QueryInterface@XDataObject@COleDataSource@@UAAJABU_GUID@@PAPAX@Z @ 1330 NONAME
	?QueryInterface@XEnumVOID@CEnumArray@@UAAJABU_GUID@@PAPAX@Z @ 1331 NONAME
	?QueryInterface@XEventSink@COleControlSite@@UAAJABU_GUID@@PAPAX@Z @ 1332 NONAME
	?QueryInterface@XFontNotification@COleControl@@UAAJABU_GUID@@PAPAX@Z @ 1333 NONAME
	?QueryInterface@XOleClientSite@COleControlSite@@UAAJABU_GUID@@PAPAX@Z @ 1334 NONAME
	?QueryInterface@XOleContainer@COleControlContainer@@UAAJABU_GUID@@PAPAX@Z @ 1335 NONAME
	?QueryInterface@XOleControl@COleControl@@UAAJABU_GUID@@PAPAX@Z @ 1336 NONAME
	?QueryInterface@XOleControlSite@COleControlSite@@UAAJABU_GUID@@PAPAX@Z @ 1337 NONAME
	?QueryInterface@XOleInPlaceActiveObject@COleControl@@UAAJABU_GUID@@PAPAX@Z @ 1338 NONAME
	?QueryInterface@XOleInPlaceObject@COleControl@@UAAJABU_GUID@@PAPAX@Z @ 1339 NONAME
	?QueryInterface@XOleIPFrame@COleControlContainer@@UAAJABU_GUID@@PAPAX@Z @ 1340 NONAME
	?QueryInterface@XOleIPSite@COleControlSite@@UAAJABU_GUID@@PAPAX@Z @ 1341 NONAME
	?QueryInterface@XOleObject@COleControl@@UAAJABU_GUID@@PAPAX@Z @ 1342 NONAME
	?QueryInterface@XPerPropertyBrowsing@COleControl@@UAAJABU_GUID@@PAPAX@Z @ 1343 NONAME
	?QueryInterface@XPersistMemory@COleControl@@UAAJABU_GUID@@PAPAX@Z @ 1344 NONAME
	?QueryInterface@XPersistPropertyBag@COleControl@@UAAJABU_GUID@@PAPAX@Z @ 1345 NONAME
	?QueryInterface@XPersistStorage@COleControl@@UAAJABU_GUID@@PAPAX@Z @ 1346 NONAME
	?QueryInterface@XPersistStreamInit@COleControl@@UAAJABU_GUID@@PAPAX@Z @ 1347 NONAME
	?QueryInterface@XPointerInactive@COleControl@@UAAJABU_GUID@@PAPAX@Z @ 1348 NONAME
	?QueryInterface@XPropertyNotifySink@COleControlSite@@UAAJABU_GUID@@PAPAX@Z @ 1349 NONAME
	?QueryInterface@XPropertyPage@COlePropertyPage@@UAAJABU_GUID@@PAPAX@Z @ 1350 NONAME
	?QueryInterface@XPropNotifySink@COlePropertyPage@@UAAJABU_GUID@@PAPAX@Z @ 1351 NONAME
	?QueryInterface@XProvideClassInfo@COleControl@@UAAJABU_GUID@@PAPAX@Z @ 1352 NONAME
	?QueryInterface@XQuickActivate@COleControl@@UAAJABU_GUID@@PAPAX@Z @ 1353 NONAME
	?QueryInterface@XSpecifyPropertyPages@COleControl@@UAAJABU_GUID@@PAPAX@Z @ 1354 NONAME
	?QueryInterface@XViewObject@COleControl@@UAAJABU_GUID@@PAPAX@Z @ 1355 NONAME
	?QuerySinkInterface@CConnectionPoint@@UAEPAUIUnknown@@PAU2@@Z @ 1356 NONAME
	?QuerySinkInterface@XEventConnPt@COleControl@@UAEPAUIUnknown@@PAU3@@Z @ 1357 NONAME
	?QueryTextMetrics@CCeFont@@UAAJPAUtagTEXTMETRICW@@@Z @ 1358 NONAME
	?QueryTextMetrics@CFontHolder@@QAEXPAUtagTEXTMETRICW@@@Z @ 1359 NONAME
	?QuickActivate@COleControlSite@@UAEHXZ @ 1360 NONAME
	?QuickActivate@XQuickActivate@COleControl@@UAAJPAUtagQACONTAINER@@PAUtagQACONTROL@@@Z @ 1361 NONAME
	?ReactivateAndUndo@XOleInPlaceObject@COleControl@@UAAJXZ @ 1362 NONAME
	?Read@COleStreamFile@@UAEIPAXI@Z @ 1363 NONAME
	?Read@CStreamImp@@UAAJPAXKPAK@Z @ 1364 NONAME
	?ReadFromStream@CProperty@@QAEHPAUIStream@@@Z @ 1365 NONAME
	?ReadFromStream@CPropertySection@@QAEHPAUIStream@@T_LARGE_INTEGER@@@Z @ 1366 NONAME
	?ReadFromStream@CPropertySet@@QAEHPAUIStream@@@Z @ 1367 NONAME
	?ReadNameDictFromStream@CPropertySection@@QAEHPAUIStream@@@Z @ 1368 NONAME
	?RecreateControlWindow@COleControl@@QAEXXZ @ 1369 NONAME
	?RectVisible@CDC@@UBEHPBUtagRECT@@@Z @ 1370 NONAME
	?Redim@COleSafeArray@@QAEXPAUtagSAFEARRAYBOUND@@@Z @ 1371 NONAME
	?Refresh@COleControl@@QAEXXZ @ 1372 NONAME
	?Register@COleObjectFactory@@UAEHXZ @ 1373 NONAME
	?RegisterAll@COleObjectFactory@@SAHXZ @ 1374 NONAME
	?Release@CBlobProperty@@UAAKXZ @ 1375 NONAME
	?Release@CCeFont@@UAAKXZ @ 1376 NONAME
	?Release@CCeFont@@W3AAKXZ @ 1377 NONAME
	?Release@CCeFont@@W7AAKXZ @ 1378 NONAME
	?Release@CCeFont@@WBA@AAKXZ @ 1379 NONAME
	?Release@CCeFont@@WM@AAKXZ @ 1380 NONAME
	?Release@CInnerUnknown@@UAAKXZ @ 1381 NONAME
	?Release@COleConnPtContainer@@UAAKXZ @ 1382 NONAME
	?Release@COleDispatchImpl@@UAAKXZ @ 1383 NONAME
	?Release@CStreamImp@@UAAKXZ @ 1384 NONAME
	?Release@XAmbientProps@COleControlSite@@UAAKXZ @ 1385 NONAME
	?Release@XClassFactory@COleObjectFactory@@UAAKXZ @ 1386 NONAME
	?Release@XConnPt@CConnectionPoint@@UAAKXZ @ 1387 NONAME
	?Release@XDataObject@COleDataSource@@UAAKXZ @ 1388 NONAME
	?Release@XEnumVOID@CEnumArray@@UAAKXZ @ 1389 NONAME
	?Release@XEventSink@COleControlSite@@UAAKXZ @ 1390 NONAME
	?Release@XFontNotification@COleControl@@UAAKXZ @ 1391 NONAME
	?Release@XOleClientSite@COleControlSite@@UAAKXZ @ 1392 NONAME
	?Release@XOleContainer@COleControlContainer@@UAAKXZ @ 1393 NONAME
	?Release@XOleControl@COleControl@@UAAKXZ @ 1394 NONAME
	?Release@XOleControlSite@COleControlSite@@UAAKXZ @ 1395 NONAME
	?Release@XOleInPlaceActiveObject@COleControl@@UAAKXZ @ 1396 NONAME
	?Release@XOleInPlaceObject@COleControl@@UAAKXZ @ 1397 NONAME
	?Release@XOleIPFrame@COleControlContainer@@UAAKXZ @ 1398 NONAME
	?Release@XOleIPSite@COleControlSite@@UAAKXZ @ 1399 NONAME
	?Release@XOleObject@COleControl@@UAAKXZ @ 1400 NONAME
	?Release@XPerPropertyBrowsing@COleControl@@UAAKXZ @ 1401 NONAME
	?Release@XPersistMemory@COleControl@@UAAKXZ @ 1402 NONAME
	?Release@XPersistPropertyBag@COleControl@@UAAKXZ @ 1403 NONAME
	?Release@XPersistStorage@COleControl@@UAAKXZ @ 1404 NONAME
	?Release@XPersistStreamInit@COleControl@@UAAKXZ @ 1405 NONAME
	?Release@XPointerInactive@COleControl@@UAAKXZ @ 1406 NONAME
	?Release@XPropertyNotifySink@COleControlSite@@UAAKXZ @ 1407 NONAME
	?Release@XPropertyPage@COlePropertyPage@@UAAKXZ @ 1408 NONAME
	?Release@XPropNotifySink@COlePropertyPage@@UAAKXZ @ 1409 NONAME
	?Release@XProvideClassInfo@COleControl@@UAAKXZ @ 1410 NONAME
	?Release@XQuickActivate@COleControl@@UAAKXZ @ 1411 NONAME
	?Release@XSpecifyPropertyPages@COleControl@@UAAKXZ @ 1412 NONAME
	?Release@XViewObject@COleControl@@UAAKXZ @ 1413 NONAME
	?ReleaseCaches@COleControl@@IAEXXZ @ 1414 NONAME
	?ReleaseCapture@COleControl@@QAEHXZ @ 1415 NONAME
	?ReleaseDC@COleControl@@QAEHPAVCDC@@@Z @ 1416 NONAME
	?ReleaseDispatch@COleDispatchDriver@@QAEXXZ @ 1417 NONAME
	?ReleaseFont@CFontHolder@@QAEXXZ @ 1418 NONAME
	?ReleaseHfont@CCeFont@@UAAJPAUHFONT__@@@Z @ 1419 NONAME
	?Remove@CPropertySection@@QAEXK@Z @ 1420 NONAME
	?Remove@CPropertySet@@QAEXU_GUID@@@Z @ 1421 NONAME
	?Remove@CPropertySet@@QAEXU_GUID@@K@Z @ 1422 NONAME
	?RemoveAll@CPropertySection@@QAEXXZ @ 1423 NONAME
	?RemoveAll@CPropertySet@@QAEXXZ @ 1424 NONAME
	?RemoveMenus@XOleIPFrame@COleControlContainer@@UAAJPAUHMENU__@@@Z @ 1425 NONAME
	?ReparentControlWindow@COleControl@@UAEXPAUHWND__@@0@Z @ 1426 NONAME
	?RequestBorderSpace@XOleIPFrame@COleControlContainer@@UAAJPBUtagRECT@@@Z @ 1427 NONAME
	?RequestLicKey@XClassFactory@COleObjectFactory@@UAAJKPAPAG@Z @ 1428 NONAME
	?RequestNewObjectLayout@XOleClientSite@COleControlSite@@UAAJXZ @ 1429 NONAME
	?Reset@XEnumVOID@CEnumArray@@UAAJXZ @ 1430 NONAME
	?ResetStockProps@COleControl@@QAEXXZ @ 1431 NONAME
	?ResetVersion@COleControl@@QAEXK@Z @ 1432 NONAME
	?ResizeBorder@XOleInPlaceActiveObject@COleControl@@UAAJPBUtagRECT@@PAUIOleInPlaceUIWindow@@H@Z @ 1433 NONAME
	?ResizeFrameWindow@COleControl@@MAEXHH@Z @ 1434 NONAME
	?ResizeOneDim@COleSafeArray@@QAEXK@Z @ 1435 NONAME
	?ResizeOpenControl@COleControl@@IAEXHH@Z @ 1436 NONAME
	?RestoreFont@CFontHolder@@QAEXXZ @ 1437 NONAME
	?Revert@CStreamImp@@UAAJXZ @ 1438 NONAME
	?RoundDiv@@YAJJJ@Z @ 1439 NONAME
	?RoundFloatDiv@CCeFont@@SANNN@Z @ 1440 NONAME
	?RunAutomated@CWinApp@@QAEHXZ @ 1441 NONAME
	?RunEmbedded@CWinApp@@QAEHXZ @ 1442 NONAME
	?SafeSetProperty@COleControlSite@@UAAHJGZZ @ 1443 NONAME
	?Save@CBlobProperty@@UAAJPAUIStream@@H@Z @ 1444 NONAME
	?Save@CCeFont@@UAAJPAUIPropertyBag@@HH@Z @ 1445 NONAME
	?Save@CCeFont@@UAAJPAUIStream@@H@Z @ 1446 NONAME
	?Save@CCeFont@@W3AAJPAUIStream@@H@Z @ 1447 NONAME
	?Save@CStreamImp@@QAAJPAX@Z @ 1448 NONAME
	?Save@XPersistMemory@COleControl@@UAAJPAXHK@Z @ 1449 NONAME
	?Save@XPersistPropertyBag@COleControl@@UAAJPAUIPropertyBag@@HH@Z @ 1450 NONAME
	?Save@XPersistStorage@COleControl@@UAAJPAUIStorage@@H@Z @ 1451 NONAME
	?Save@XPersistStreamInit@COleControl@@UAAJPAUIStream@@H@Z @ 1452 NONAME
	?SaveCompleted@XPersistStorage@COleControl@@UAAJPAUIStorage@@@Z @ 1453 NONAME
	?SaveObject@XOleClientSite@COleControlSite@@UAAJXZ @ 1454 NONAME
	?SaveState@COleControl@@IAEJPAUIStream@@@Z @ 1455 NONAME
	?Scroll@XOleIPSite@COleControlSite@@UAAJUtagSIZE@@@Z @ 1456 NONAME
	?ScrollChildren@COleControlContainer@@UAEXHH@Z @ 1457 NONAME
	?ScrollWindow@COleControl@@QAEXHHPBUtagRECT@@0@Z @ 1458 NONAME
	?Seek@COleStreamFile@@UAEJJI@Z @ 1459 NONAME
	?Seek@CStreamImp@@UAAJT_LARGE_INTEGER@@KPAT_ULARGE_INTEGER@@@Z @ 1460 NONAME
	?Select@CFontHolder@@QAEPAVCFont@@PAVCDC@@JJ@Z @ 1461 NONAME
	?SelectFontObject@COleControl@@QAEPAVCFont@@PAVCDC@@AAVCFontHolder@@@Z @ 1462 NONAME
	?SelectStockFont@COleControl@@QAEPAVCFont@@PAVCDC@@@Z @ 1463 NONAME
	?SendAdvise@COleControl@@IAEXI@Z @ 1464 NONAME
	?SendDlgItemMessage@COleControlContainer@@UAEJHIIJ@Z @ 1465 NONAME
	?SendMnemonic@COleControlSite@@QAEXPAUtagMSG@@@Z @ 1466 NONAME
	?Serialize@CObject@@UAEXAAVCArchive@@@Z @ 1467 NONAME
	?Serialize@COleControl@@MAEXAAVCArchive@@@Z @ 1468 NONAME
	?SerializeExtent@COleControl@@QAEXAAVCArchive@@@Z @ 1470 NONAME
	?SerializeStockProps@COleControl@@QAEXAAVCArchive@@@Z @ 1471 NONAME
	?SerializeVersion@COleControl@@QAEKAAVCArchive@@KH@Z @ 1472 NONAME
	?Set@CProperty@@QAEHKQAXK@Z @ 1473 NONAME
	?Set@CProperty@@QAEHQAX@Z @ 1474 NONAME
	?Set@CProperty@@QAEHQAXK@Z @ 1475 NONAME
	?Set@CPropertySection@@QAEHKPAX@Z @ 1476 NONAME
	?Set@CPropertySection@@QAEHKPAXK@Z @ 1477 NONAME
	?Set@CPropertySet@@QAEHU_GUID@@KPAX@Z @ 1478 NONAME
	?Set@CPropertySet@@QAEHU_GUID@@KPAXK@Z @ 1479 NONAME
	?SetActiveObject@XOleIPFrame@COleControlContainer@@UAAJPAUIOleInPlaceActiveObject@@PBG@Z @ 1480 NONAME
	?SetAdvise@XViewObject@COleControl@@UAAJKKPAUIAdviseSink@@@Z @ 1481 NONAME
	?SetAppearance@COleControl@@QAEXF@Z @ 1482 NONAME
	?SetAt@CAfxOleSymbolTable@@QAEXHPBG@Z @ 1483 NONAME
	?SetBackColor@COleControl@@QAEXK@Z @ 1484 NONAME
	?SetBorderSpace@XOleIPFrame@COleControlContainer@@UAAJPBUtagRECT@@@Z @ 1485 NONAME
	?SetBorderStyle@COleControl@@QAEXF@Z @ 1486 NONAME
	?SetCapture@COleControl@@QAEPAVCWnd@@XZ @ 1487 NONAME
	?SetClassID@CPropertySet@@QAEXU_GUID@@@Z @ 1488 NONAME
	?SetClientSite@XOleObject@COleControl@@UAAJPAUIOleClientSite@@@Z @ 1489 NONAME
	?SetColorScheme@XOleObject@COleControl@@UAAJPAUtagLOGPALETTE@@@Z @ 1490 NONAME
	?SetContentExtent@XQuickActivate@COleControl@@UAAJPAUtagSIZE@@@Z @ 1491 NONAME
	?SetControl@CReflectorWnd@@QAEXPAVCOleControl@@@Z @ 1492 NONAME
	?SetControlSize@COleControl@@QAEHHH@Z @ 1493 NONAME
	?SetControlStatus@COlePropertyPage@@QAEHIH@Z @ 1494 NONAME
	?SetCurrency@COleCurrency@@QAEXJJ@Z @ 1495 NONAME
	?SetCurSel@CMonthCalCtrl@@QAEHABVCOleDateTime@@@Z @ 1496 NONAME
	?SetCurSel@CMonthCalCtrl@@QAEHABVCTime@@@Z @ 1497 NONAME
	?SetData@XDataObject@COleDataSource@@UAAJPAUtagFORMATETC@@PAUtagSTGMEDIUM@@H@Z @ 1498 NONAME
	?SetDateTime@COleDateTime@@QAEHHHHHHH@Z @ 1499 NONAME
	?SetDateTimeSpan@COleDateTimeSpan@@QAEXJHHH@Z @ 1500 NONAME
	?SetDayState@CMonthCalCtrl@@QAEHHPAK@Z @ 1501 NONAME
	?SetDefaultButton@COccManager@@SAXPAVCWnd@@H@Z @ 1502 NONAME
	?SetDefaultButton@COleControlSite@@QAEXH@Z @ 1503 NONAME
	?SetDialogResource@COlePropertyPage@@QAEXPAX@Z @ 1504 NONAME
	?SetDlgCtrlID@COleControlSite@@UAEHH@Z @ 1505 NONAME
	?SetDlgItemInt@COleControlContainer@@UAEXHIH@Z @ 1506 NONAME
	?SetDlgItemText@COleControlContainer@@UAEXHPBG@Z @ 1507 NONAME
	?SetEnabled@COleControl@@QAEXH@Z @ 1508 NONAME
	?SetExtent@COleControlSite@@IAEHXZ @ 1509 NONAME
	?SetExtent@XOleObject@COleControl@@UAAJKPAUtagSIZE@@@Z @ 1510 NONAME
	?SetFilePath@CFile@@UAEXPBG@Z @ 1511 NONAME
	?SetFirstDayOfWeek@CMonthCalCtrl@@QAEHHPAH@Z @ 1512 NONAME
	?SetFocus@COleControl@@QAEPAVCWnd@@XZ @ 1513 NONAME
	?SetFocus@COleControlSite@@UAEPAVCWnd@@XZ @ 1514 NONAME
	?SetFont@CFontHolder@@QAEXPAUIFont@@@Z @ 1515 NONAME
	?SetFont@COleControl@@QAEXPAUIFontDisp@@@Z @ 1516 NONAME
	?SetFontNotifySink@CFontHolder@@QAEXPAUIPropertyNotifySink@@@Z @ 1517 NONAME
	?SetForeColor@COleControl@@QAEXK@Z @ 1518 NONAME
	?SetFormatID@CPropertySection@@QAEXU_GUID@@@Z @ 1519 NONAME
	?SetFormatVersion@CPropertySet@@QAEXG@Z @ 1520 NONAME
	?SetHdc@CCeFont@@UAAJPAUHDC__@@@Z @ 1521 NONAME
	?SetHelpInfo@COlePropertyPage@@QAEXPBG0K@Z @ 1522 NONAME
	?SetHostNames@XOleObject@COleControl@@UAAJPBG0@Z @ 1523 NONAME
	?SetID@CProperty@@QAEXK@Z @ 1524 NONAME
	?SetInitialDataFormats@COleControl@@MAEXXZ @ 1525 NONAME
	?SetInitialSize@COleControl@@QAEXHH@Z @ 1526 NONAME
	?SetLength@COleStreamFile@@UAEXK@Z @ 1527 NONAME
	?SetMenu@XOleIPFrame@COleControlContainer@@UAAJPAUHMENU__@@PAXPAUHWND__@@@Z @ 1528 NONAME
	?SetModifiedFlag@COleControl@@QAEXH@Z @ 1529 NONAME
	?SetModifiedFlag@COlePropertyPage@@QAEXH@Z @ 1530 NONAME
	?SetMoniker@XOleObject@COleControl@@UAAJKPAUIMoniker@@@Z @ 1531 NONAME
	?SetName@CPropertySection@@QAEHKPBG@Z @ 1532 NONAME
	?SetNotPermitted@COleControl@@QAEXXZ @ 1533 NONAME
	?SetNotSupported@CCmdTarget@@QAEXXZ @ 1534 NONAME
	?SetNotSupported@COleControl@@QAEXXZ @ 1535 NONAME
	?SetObjectRects@XOleInPlaceObject@COleControl@@UAAJPBUtagRECT@@0@Z @ 1536 NONAME
	?SetObjects@XPropertyPage@COlePropertyPage@@UAAJKPAPAUIUnknown@@@Z @ 1537 NONAME
	?SetOSVersion@CPropertySet@@QAEXK@Z @ 1538 NONAME
	?SetPageName@COlePropertyPage@@QAEXPBG@Z @ 1539 NONAME
	?SetPageSite@XPropertyPage@COlePropertyPage@@UAAJPAUIPropertyPageSite@@@Z @ 1540 NONAME
	?SetPropCheck@COlePropertyPage@@QAEHPBGH@Z @ 1541 NONAME
	?SetProperty@COleControlSite@@UAAXJGZZ @ 1542 NONAME
	?SetProperty@COleDispatchDriver@@QAAXJGZZ @ 1543 NONAME
	?SetPropertyV@COleControlSite@@UAEXJGPAD@Z @ 1544 NONAME
	?SetPropIndex@COlePropertyPage@@QAEHPBGH@Z @ 1545 NONAME
	?SetPropRadio@COlePropertyPage@@QAEHPBGH@Z @ 1546 NONAME
	?SetPropsetData@COleControl@@IAEHPAUtagFORMATETC@@PAUtagSTGMEDIUM@@ABU_GUID@@@Z @ 1547 NONAME
	?SetPropText@COlePropertyPage@@QAEHPBGAAE@Z @ 1548 NONAME
	?SetPropText@COlePropertyPage@@QAEHPBGAAF@Z @ 1549 NONAME
	?SetPropText@COlePropertyPage@@QAEHPBGAAH@Z @ 1550 NONAME
	?SetPropText@COlePropertyPage@@QAEHPBGAAI@Z @ 1551 NONAME
	?SetPropText@COlePropertyPage@@QAEHPBGAAJ@Z @ 1552 NONAME
	?SetPropText@COlePropertyPage@@QAEHPBGAAK@Z @ 1553 NONAME
	?SetPropText@COlePropertyPage@@QAEHPBGAAM@Z @ 1554 NONAME
	?SetPropText@COlePropertyPage@@QAEHPBGAAN@Z @ 1555 NONAME
	?SetPropText@COlePropertyPage@@QAEHPBGAAVCString@@@Z @ 1556 NONAME
	?SetRange@CDateTimeCtrl@@QAEHPBVCOleDateTime@@0@Z @ 1557 NONAME
	?SetRange@CDateTimeCtrl@@QAEHPBVCTime@@0@Z @ 1558 NONAME
	?SetRange@CMonthCalCtrl@@QAEHPBVCOleDateTime@@0@Z @ 1559 NONAME
	?SetRange@CMonthCalCtrl@@QAEHPBVCTime@@0@Z @ 1560 NONAME
	?SetRange@CMonthCalCtrl@@QAEHQAU_SYSTEMTIME@@0@Z @ 1561 NONAME
	?SetRatio@CCeFont@@UAAJJJ@Z @ 1562 NONAME
	?SetRectInContainer@COleControl@@QAEHPBUtagRECT@@@Z @ 1563 NONAME
	?SetSectionName@CPropertySection@@QAEHPBG@Z @ 1564 NONAME
	?SetSelRange@CMonthCalCtrl@@QAEHABVCOleDateTime@@0@Z @ 1565 NONAME
	?SetSelRange@CMonthCalCtrl@@QAEHABVCTime@@0@Z @ 1566 NONAME
	?SetSelRange@CMonthCalCtrl@@QAEHQAU_SYSTEMTIME@@0@Z @ 1567 NONAME
	?SetSize@CStreamImp@@UAAJT_ULARGE_INTEGER@@@Z @ 1568 NONAME
	?SetStandardProp@CCmdTarget@@IAEJPBUAFX_DISPMAP_ENTRY@@PAUtagDISPPARAMS@@PAI@Z @ 1569 NONAME
	?SetStatusText@XOleIPFrame@COleControlContainer@@UAAJPBG@Z @ 1570 NONAME
	?SetString@COleVariant@@QAEXPBGG@Z @ 1571 NONAME
	?SetSysString@CString@@QBEPAGPAPAG@Z @ 1572 NONAME
	?SetText@COleControl@@QAEXPBG@Z @ 1573 NONAME
	?SetTime@CDateTimeCtrl@@QAEHABVCOleDateTime@@@Z @ 1574 NONAME
	?SetTime@CDateTimeCtrl@@QAEHPAU_SYSTEMTIME@@@Z @ 1575 NONAME
	?SetTime@CDateTimeCtrl@@QAEHPBVCTime@@@Z @ 1576 NONAME
	?SetToday@CMonthCalCtrl@@QAEXABVCOleDateTime@@@Z @ 1577 NONAME
	?SetToday@CMonthCalCtrl@@QAEXPBVCTime@@@Z @ 1578 NONAME
	?SetType@CProperty@@QAEXK@Z @ 1579 NONAME
	?SetWindowPos@COleControlSite@@UAEHPBVCWnd@@HHHHI@Z @ 1580 NONAME
	?SetWindowTextW@COleControlSite@@UAEXPBG@Z @ 1581 NONAME
	?Show@XPropertyPage@COlePropertyPage@@UAAJI@Z @ 1582 NONAME
	?ShowObject@XOleClientSite@COleControlSite@@UAAJXZ @ 1583 NONAME
	?ShowPropertyFrame@XOleControlSite@COleControlSite@@UAAJXZ @ 1584 NONAME
	?ShowWindow@COleControlSite@@UAEHH@Z @ 1585 NONAME
	?SizeMinReq@CMonthCalCtrl@@QAEHH@Z @ 1586 NONAME
	?Skip@XEnumVOID@CEnumArray@@UAAJK@Z @ 1587 NONAME
	?SplitDialogTemplate@COccManager@@UAEPAUDLGTEMPLATE@@PBU2@PAPAUDLGITEMTEMPLATE@@@Z @ 1588 NONAME
	?Stat@CStreamImp@@UAAJPAUtagSTATSTG@@K@Z @ 1589 NONAME
	?ThrowError@COleControl@@QAEXJII@Z @ 1590 NONAME
	?ThrowError@COleControl@@QAEXJPBGI@Z @ 1591 NONAME
	?TransformCoords@COleControl@@QAEXPAU_POINTL@@PAUtagPOINTF@@K@Z @ 1592 NONAME
	?TransformCoords@XOleControlSite@COleControlSite@@UAAJPAU_POINTL@@PAUtagPOINTF@@K@Z @ 1593 NONAME
	?TranslateAcceleratorW@XOleControlSite@COleControlSite@@UAAJPAUtagMSG@@K@Z @ 1594 NONAME
	?TranslateAcceleratorW@XOleInPlaceActiveObject@COleControl@@UAAJPAUtagMSG@@@Z @ 1595 NONAME
	?TranslateAcceleratorW@XOleIPFrame@COleControlContainer@@UAAJPAUtagMSG@@G@Z @ 1596 NONAME
	?TranslateAcceleratorW@XPropertyPage@COlePropertyPage@@UAAJPAUtagMSG@@@Z @ 1597 NONAME
	?TranslateColor@COleControl@@QAEKKPAUHPALETTE__@@@Z @ 1598 NONAME
	?UIActivateControl@COccManager@@KAXPAVCWnd@@@Z @ 1599 NONAME
	?UIDeactivate@XOleInPlaceObject@COleControl@@UAAJXZ @ 1600 NONAME
	?UIDeactivateIfNecessary@COccManager@@KAXPAVCWnd@@0@Z @ 1601 NONAME
	?UnaccessData@COleSafeArray@@QAEXXZ @ 1602 NONAME
	?Unadvise@XConnPt@CConnectionPoint@@UAAJK@Z @ 1603 NONAME
	?Unadvise@XOleObject@COleControl@@UAAJK@Z @ 1604 NONAME
	?Unfreeze@XViewObject@COleControl@@UAAJK@Z @ 1605 NONAME
	?UninitFontObject@CCeFont@@SAJXZ @ 1606 NONAME
	?Unlock@COleSafeArray@@QAEXXZ @ 1607 NONAME
	?Unlock@CUnknown@@UAEXXZ @ 1608 NONAME
	?UnlockRange@COleStreamFile@@UAEXKK@Z @ 1609 NONAME
	?UnlockRegion@CStreamImp@@UAAJT_ULARGE_INTEGER@@0K@Z @ 1610 NONAME
	?Unregister@COleObjectFactory@@QAEHXZ @ 1611 NONAME
	?UnregisterAll@COleObjectFactory@@SAHXZ @ 1612 NONAME
	?Update@XOleObject@COleControl@@UAAJXZ @ 1613 NONAME
	?UpdateFont@CCeFont@@QAEJXZ @ 1614 NONAME
	?UpdateFr@CCeFont@@QAEJPAUHFONT__@@PAUtagTEXTMETRICW@@QAG@Z @ 1615 NONAME
	?UpdateRegistry@COleObjectFactory@@MAEHH@Z @ 1616 NONAME
	?UpdateRegistry@COleObjectFactory@@QAEXPBG@Z @ 1617 NONAME
	?UpdateRegistryAll@COleObjectFactory@@SAHH@Z @ 1618 NONAME
	?VerifyLicenseKey@COleObjectFactory@@MAEHPAG@Z @ 1619 NONAME
	?VerifyUserLicense@COleObjectFactory@@MAEHXZ @ 1620 NONAME
	?wce_CLSIDFromProgID@@YAJPBGPAU_GUID@@@Z @ 1621 NONAME
	?wce_CoDisconnectObject@@YAJPAUIUnknown@@K@Z @ 1622 NONAME
	?wce_convertDialogItemTemplate@@YAPAEPAUDLGITEMTEMPLATE@@PAUDLGITEMTEMPLATEEX@@K@Z @ 1623 NONAME
	?wce_convertDialogTemplate@@YAPAEPAUDLGTEMPLATE@@PAUDLGTEMPLATEEX@@K@Z @ 1624 NONAME
	?wce_CoTaskMemRealloc@@YAPAXPAXKK@Z @ 1625 NONAME
	?wce_CreateStreamOnHGlobal@@YAJPAXHPAPAUIStream@@@Z @ 1626 NONAME
	?wce_GetModuleHandleA@@YAPAUHINSTANCE__@@PBD@Z @ 1673 NONAME
	?wce_GlobalAlloc@@YAPAXIK@Z @ 1674 NONAME
	?wce_IMMWndProc@@YAJPAUHWND__@@IIJ@Z @ 1627 NONAME
	?wce_OleCreateFontIndirect@@YAJPAXABU_GUID@@PAPAX@Z @ 1628 NONAME
	?wce_OleInitialize@@YAJPAX@Z @ 1629 NONAME
	?wce_OleLoadFromStream@@YAJPAUIStream@@ABU_GUID@@PAPAX@Z @ 1630 NONAME
	?wce_OleSaveToStream@@YAJPAUIPersistStream@@PAUIStream@@@Z @ 1631 NONAME
	?wce_OleTranslateColor@@YAJKPAUHPALETTE__@@PAK@Z @ 1632 NONAME
	?wce_OleUninitialize@@YAXXZ @ 1633 NONAME
	?wce_RegGetMiscStatus@@YAJABU_GUID@@PAK@Z @ 1634 NONAME
	?wce_ReleaseStgMedium@@YAXPAUtagSTGMEDIUM@@@Z @ 1635 NONAME
	?wce_UnregisterOleWindowClasses@@YAXXZ @ 1636 NONAME
	?WillAmbientsBeValidDuringLoad@COleControl@@QAEHXZ @ 1637 NONAME
	?WindowProc@COleControl@@UAEJIIJ@Z @ 1638 NONAME
	?WindowProc@COlePropertyPage@@MAEJIIJ@Z @ 1639 NONAME
	?WindowProc@CParkingWnd@@UAEJIIJ@Z @ 1640 NONAME
	?WindowProc@CReflectorWnd@@MAEJIIJ@Z @ 1641 NONAME
	?Write@COleStreamFile@@UAEXPBXI@Z @ 1642 NONAME
	?Write@CStreamImp@@UAAJPBXKPAK@Z @ 1643 NONAME
	?WriteNameDictToStream@CPropertySection@@QAEHPAUIStream@@@Z @ 1644 NONAME
	?WriteToStream@CProperty@@QAEHPAUIStream@@@Z @ 1645 NONAME
	?WriteToStream@CPropertySection@@QAEHPAUIStream@@@Z @ 1646 NONAME
	?WriteToStream@CPropertySet@@QAEHPAUIStream@@@Z @ 1647 NONAME
	afxChNil @ 16 NONAME
